
TesteSoftwareSub.elf:     file format elf32-littlenios2
TesteSoftwareSub.elf
architecture: nios2:r1, flags 0x00000112:
EXEC_P, HAS_SYMS, D_PAGED
start address 0x00020230

Program Header:
    LOAD off    0x00001000 vaddr 0x00020000 paddr 0x00020000 align 2**12
         filesz 0x00000020 memsz 0x00000020 flags r-x
    LOAD off    0x00001020 vaddr 0x00020020 paddr 0x00020020 align 2**12
         filesz 0x00010640 memsz 0x00010640 flags r-x
    LOAD off    0x00011660 vaddr 0x00030660 paddr 0x00032154 align 2**12
         filesz 0x00001af4 memsz 0x00001af4 flags rw-
    LOAD off    0x00013c48 vaddr 0x00033c48 paddr 0x00033c48 align 2**12
         filesz 0x00000000 memsz 0x00000178 flags rw-

Sections:
Idx Name          Size      VMA       LMA       File off  Algn
  0 .entry        00000020  00020000  00020000  00001000  2**5
                  CONTENTS, ALLOC, LOAD, READONLY, CODE
  1 .exceptions   00000210  00020020  00020020  00001020  2**2
                  CONTENTS, ALLOC, LOAD, READONLY, CODE
  2 .text         000100bc  00020230  00020230  00001230  2**2
                  CONTENTS, ALLOC, LOAD, READONLY, CODE
  3 .rodata       00000374  000302ec  000302ec  000112ec  2**2
                  CONTENTS, ALLOC, LOAD, READONLY, DATA
  4 .rwdata       00001af4  00030660  00032154  00011660  2**2
                  CONTENTS, ALLOC, LOAD, DATA, SMALL_DATA
  5 .bss          00000178  00033c48  00033c48  00013c48  2**2
                  ALLOC, SMALL_DATA
  6 .MemoriaPrograma 00000000  00033dc0  00033dc0  00013154  2**0
                  CONTENTS
  7 .MemoriaImagem2 00000000  00040000  00040000  00013154  2**0
                  CONTENTS
  8 .MemoriaImagem1 00000000  00060000  00060000  00013154  2**0
                  CONTENTS
  9 .comment      00000023  00000000  00000000  00013154  2**0
                  CONTENTS, READONLY
 10 .debug_aranges 00000f78  00000000  00000000  00013178  2**3
                  CONTENTS, READONLY, DEBUGGING
 11 .debug_info   000277fe  00000000  00000000  000140f0  2**0
                  CONTENTS, READONLY, DEBUGGING
 12 .debug_abbrev 00009ccc  00000000  00000000  0003b8ee  2**0
                  CONTENTS, READONLY, DEBUGGING
 13 .debug_line   0000c1fa  00000000  00000000  000455ba  2**0
                  CONTENTS, READONLY, DEBUGGING
 14 .debug_frame  000021d4  00000000  00000000  000517b4  2**2
                  CONTENTS, READONLY, DEBUGGING
 15 .debug_str    00003a4a  00000000  00000000  00053988  2**0
                  CONTENTS, READONLY, DEBUGGING
 16 .debug_loc    0001832d  00000000  00000000  000573d2  2**0
                  CONTENTS, READONLY, DEBUGGING
 17 .debug_alt_sim_info 00000010  00000000  00000000  0006f700  2**2
                  CONTENTS, READONLY, DEBUGGING
 18 .debug_ranges 00001998  00000000  00000000  0006f710  2**3
                  CONTENTS, READONLY, DEBUGGING
 19 .thread_model 00000003  00000000  00000000  00074382  2**0
                  CONTENTS, READONLY
 20 .cpu          0000000b  00000000  00000000  00074385  2**0
                  CONTENTS, READONLY
 21 .qsys         00000001  00000000  00000000  00074390  2**0
                  CONTENTS, READONLY
 22 .simulation_enabled 00000001  00000000  00000000  00074391  2**0
                  CONTENTS, READONLY
 23 .stderr_dev   00000009  00000000  00000000  00074392  2**0
                  CONTENTS, READONLY
 24 .stdin_dev    00000009  00000000  00000000  0007439b  2**0
                  CONTENTS, READONLY
 25 .stdout_dev   00000009  00000000  00000000  000743a4  2**0
                  CONTENTS, READONLY
 26 .sopc_system_name 00000019  00000000  00000000  000743ad  2**0
                  CONTENTS, READONLY
 27 .quartus_project_dir 00000027  00000000  00000000  000743c6  2**0
                  CONTENTS, READONLY
 28 .jdi          0000a2b0  00000000  00000000  000743ed  2**0
                  CONTENTS, READONLY
 29 .sopcinfo     000456e2  00000000  00000000  0007e69d  2**0
                  CONTENTS, READONLY
SYMBOL TABLE:
00020000 l    d  .entry	00000000 .entry
00020020 l    d  .exceptions	00000000 .exceptions
00020230 l    d  .text	00000000 .text
000302ec l    d  .rodata	00000000 .rodata
00030660 l    d  .rwdata	00000000 .rwdata
00033c48 l    d  .bss	00000000 .bss
00033dc0 l    d  .MemoriaPrograma	00000000 .MemoriaPrograma
00040000 l    d  .MemoriaImagem2	00000000 .MemoriaImagem2
00060000 l    d  .MemoriaImagem1	00000000 .MemoriaImagem1
00000000 l    d  .comment	00000000 .comment
00000000 l    d  .debug_aranges	00000000 .debug_aranges
00000000 l    d  .debug_info	00000000 .debug_info
00000000 l    d  .debug_abbrev	00000000 .debug_abbrev
00000000 l    d  .debug_line	00000000 .debug_line
00000000 l    d  .debug_frame	00000000 .debug_frame
00000000 l    d  .debug_str	00000000 .debug_str
00000000 l    d  .debug_loc	00000000 .debug_loc
00000000 l    d  .debug_alt_sim_info	00000000 .debug_alt_sim_info
00000000 l    d  .debug_ranges	00000000 .debug_ranges
00000000 l    df *ABS*	00000000 ../TesteSoftwareSub_bsp//obj/HAL/src/crt0.o
00020268 l       .text	00000000 alt_after_alt_main
00000000 l    df *ABS*	00000000 alt_irq_handler.c
00000000 l    df *ABS*	00000000 alt_instruction_exception_entry.c
00000000 l    df *ABS*	00000000 hello_world.c
00000000 l    df *ABS*	00000000 fopen.c
00000000 l    df *ABS*	00000000 fprintf.c
00000000 l    df *ABS*	00000000 fseek.c
00000000 l    df *ABS*	00000000 fseeko.c
00000000 l    df *ABS*	00000000 fstatr.c
00000000 l    df *ABS*	00000000 fwrite.c
00000000 l    df *ABS*	00000000 impure.c
00030660 l     O .rwdata	00000424 impure_data
00000000 l    df *ABS*	00000000 int_errno.c
00000000 l    df *ABS*	00000000 makebuf.c
00000000 l    df *ABS*	00000000 mallocr.c
00000000 l    df *ABS*	00000000 memset.c
00000000 l    df *ABS*	00000000 openr.c
00000000 l    df *ABS*	00000000 refill.c
00021708 l     F .text	0000001c lflush
00000000 l    df *ABS*	00000000 sbrkr.c
00000000 l    df *ABS*	00000000 stdio.c
00000000 l    df *ABS*	00000000 vfprintf.c
000303b2 l     O .rodata	00000010 zeroes.4404
00023d80 l     F .text	000000bc __sbprintf
000303c2 l     O .rodata	00000010 blanks.4403
00000000 l    df *ABS*	00000000 writer.c
00000000 l    df *ABS*	00000000 wsetup.c
00000000 l    df *ABS*	00000000 closer.c
00000000 l    df *ABS*	00000000 dtoa.c
00024044 l     F .text	00000228 quorem
00000000 l    df *ABS*	00000000 fflush.c
00000000 l    df *ABS*	00000000 findfp.c
00025b9c l     F .text	00000008 __fp_unlock
00025bb0 l     F .text	0000019c __sinit.part.1
00025d4c l     F .text	00000008 __fp_lock
00000000 l    df *ABS*	00000000 flags.c
00000000 l    df *ABS*	00000000 mallocr.c
00000000 l    df *ABS*	00000000 fvwrite.c
00000000 l    df *ABS*	00000000 fwalk.c
00000000 l    df *ABS*	00000000 isattyr.c
00000000 l    df *ABS*	00000000 locale.c
00030eac l     O .rwdata	00000020 lc_ctype_charset
00030e8c l     O .rwdata	00000020 lc_message_charset
00030ecc l     O .rwdata	00000038 lconv
00000000 l    df *ABS*	00000000 lseekr.c
00000000 l    df *ABS*	00000000 memchr.c
00000000 l    df *ABS*	00000000 memcpy.c
00000000 l    df *ABS*	00000000 memmove.c
00000000 l    df *ABS*	00000000 mprec.c
000303f0 l     O .rodata	0000000c p05.2768
00000000 l    df *ABS*	00000000 readr.c
00000000 l    df *ABS*	00000000 mallocr.c
00000000 l    df *ABS*	00000000 s_fpclassify.c
00000000 l    df *ABS*	00000000 strcmp.c
00000000 l    df *ABS*	00000000 strlen.c
00000000 l    df *ABS*	00000000 vfprintf.c
000287f8 l     F .text	000000fc __sprint_r.part.0
00030514 l     O .rodata	00000010 zeroes.4349
00029e34 l     F .text	000000bc __sbprintf
00030524 l     O .rodata	00000010 blanks.4348
00000000 l    df *ABS*	00000000 mallocr.c
00000000 l    df *ABS*	00000000 fclose.c
00000000 l    df *ABS*	00000000 fputwc.c
00000000 l    df *ABS*	00000000 wbuf.c
00000000 l    df *ABS*	00000000 wcrtomb.c
00000000 l    df *ABS*	00000000 wctomb_r.c
00000000 l    df *ABS*	00000000 libgcc2.c
00000000 l    df *ABS*	00000000 libgcc2.c
00000000 l    df *ABS*	00000000 lib2-divmod.c
00000000 l    df *ABS*	00000000 lib2-mul.c
00000000 l    df *ABS*	00000000 adddf3.c
00000000 l    df *ABS*	00000000 divdf3.c
00000000 l    df *ABS*	00000000 eqdf2.c
00000000 l    df *ABS*	00000000 gedf2.c
00000000 l    df *ABS*	00000000 ledf2.c
00000000 l    df *ABS*	00000000 muldf3.c
00000000 l    df *ABS*	00000000 subdf3.c
00000000 l    df *ABS*	00000000 fixdfsi.c
00000000 l    df *ABS*	00000000 floatsidf.c
00000000 l    df *ABS*	00000000 floatunsidf.c
00000000 l    df *ABS*	00000000 libgcc2.c
00000000 l    df *ABS*	00000000 libgcc2.c
00000000 l    df *ABS*	00000000 alt_close.c
0002dc58 l     F .text	0000003c alt_get_errno
00000000 l    df *ABS*	00000000 alt_dev.c
0002dd6c l     F .text	0000002c alt_dev_null_write
00000000 l    df *ABS*	00000000 alt_errno.c
00000000 l    df *ABS*	00000000 alt_fstat.c
0002dd98 l     F .text	0000003c alt_get_errno
00000000 l    df *ABS*	00000000 alt_isatty.c
0002de8c l     F .text	0000003c alt_get_errno
00000000 l    df *ABS*	00000000 alt_load.c
0002df74 l     F .text	00000068 alt_load_section
00000000 l    df *ABS*	00000000 alt_lseek.c
0002e060 l     F .text	0000003c alt_get_errno
00000000 l    df *ABS*	00000000 alt_main.c
00000000 l    df *ABS*	00000000 alt_malloc_lock.c
00000000 l    df *ABS*	00000000 alt_open.c
0002e23c l     F .text	0000003c alt_get_errno
0002e278 l     F .text	000000ec alt_file_locked
00000000 l    df *ABS*	00000000 alt_read.c
0002e4c0 l     F .text	0000003c alt_get_errno
00000000 l    df *ABS*	00000000 alt_release_fd.c
00000000 l    df *ABS*	00000000 alt_sbrk.c
00032144 l     O .rwdata	00000004 heap_end
00000000 l    df *ABS*	00000000 alt_write.c
0002e734 l     F .text	0000003c alt_get_errno
00000000 l    df *ABS*	00000000 alt_sys_init.c
0002e870 l     F .text	00000034 alt_dev_reg
000310ac l     O .rwdata	00001060 jtag_uart
00000000 l    df *ABS*	00000000 altera_avalon_jtag_uart_fd.c
00000000 l    df *ABS*	00000000 altera_avalon_jtag_uart_init.c
0002eb48 l     F .text	0000020c altera_avalon_jtag_uart_irq
0002ed54 l     F .text	000000a0 altera_avalon_jtag_uart_timeout
00000000 l    df *ABS*	00000000 altera_avalon_jtag_uart_ioctl.c
00000000 l    df *ABS*	00000000 altera_avalon_jtag_uart_read.c
00000000 l    df *ABS*	00000000 altera_avalon_jtag_uart_write.c
00000000 l    df *ABS*	00000000 alt_alarm_start.c
00000000 l    df *ABS*	00000000 alt_dcache_flush_all.c
00000000 l    df *ABS*	00000000 alt_dev_llist_insert.c
0002f4d8 l     F .text	0000003c alt_get_errno
00000000 l    df *ABS*	00000000 alt_do_ctors.c
00000000 l    df *ABS*	00000000 alt_do_dtors.c
00000000 l    df *ABS*	00000000 alt_find_dev.c
00000000 l    df *ABS*	00000000 alt_find_file.c
00000000 l    df *ABS*	00000000 alt_get_fd.c
00000000 l    df *ABS*	00000000 alt_icache_flush_all.c
00000000 l    df *ABS*	00000000 alt_iic.c
00000000 l    df *ABS*	00000000 alt_iic_isr_register.c
00000000 l    df *ABS*	00000000 alt_io_redirect.c
0002fb94 l     F .text	000000e4 alt_open_fd
00000000 l    df *ABS*	00000000 alt_irq_vars.c
00000000 l    df *ABS*	00000000 alt_tick.c
00000000 l    df *ABS*	00000000 altera_nios2_gen2_irq.c
00000000 l    df *ABS*	00000000 atexit.c
00000000 l    df *ABS*	00000000 exit.c
00000000 l    df *ABS*	00000000 memcmp.c
00000000 l    df *ABS*	00000000 __atexit.c
00000000 l    df *ABS*	00000000 __call_atexit.c
00000000 l    df *ABS*	00000000 alt_exit.c
00032110 g     O .rwdata	00000004 img2
00033c94 g     O .bss	00000004 alt_instruction_exception_handler
00027ed4 g     F .text	00000074 _mprec_log10
00027fc0 g     F .text	0000008c __any_on
00026a7c g     F .text	00000054 _isatty_r
000303fc g     O .rodata	00000028 __mprec_tinytens
0002e178 g     F .text	0000007c alt_main
00033c4c g     O .bss	00000004 wordlen
00033cc0 g     O .bss	00000100 alt_irq
00026bac g     F .text	00000060 _lseek_r
00032154 g       *ABS*	00000000 __flash_rwdata_start
00025f4c g     F .text	000000ac __sflags
0002c630 g     F .text	00000088 .hidden __eqdf2
00033dc0 g       *ABS*	00000000 __alt_heap_start
0002a430 g     F .text	0000009c _wcrtomb_r
00021a24 g     F .text	0000005c __sseek
00025efc g     F .text	00000010 __sinit
0002a2d8 g     F .text	00000140 __swbuf_r
00026ad0 g     F .text	0000007c _setlocale_r
00025d54 g     F .text	00000078 __sfmoreglue
0002e218 g     F .text	00000024 __malloc_unlock
00026e38 g     F .text	0000015c memmove
00025ee4 g     F .text	00000018 _cleanup
00026f94 g     F .text	000000a8 _Balloc
00033c50 g     O .bss	00000004 n
0002c6b8 g     F .text	000000dc .hidden __gtdf2
0002fe98 g     F .text	00000024 altera_nios2_gen2_irq_init
00020000 g     F .entry	0000000c __reset
00020020 g       *ABS*	00000000 __flash_exceptions_start
00020a4c g     F .text	0000005c _fstat_r
00033c60 g     O .bss	00000004 errno
000219a0 g     F .text	00000008 __seofread
00033c80 g     O .bss	00000004 alt_argv
0003a10c g       *ABS*	00000000 _gp
00030f2c g     O .rwdata	00000180 alt_fd_list
0002f678 g     F .text	00000090 alt_find_dev
00026cf0 g     F .text	00000148 memcpy
00025ba4 g     F .text	0000000c _cleanup_r
0002da70 g     F .text	000000dc .hidden __floatsidf
0002fc78 g     F .text	0000007c alt_io_redirect
0002c794 g     F .text	000000f4 .hidden __ltdf2
000302ec g       *ABS*	00000000 __DTOR_END__
0002febc g     F .text	0000009c alt_exception_cause_generated_bad_addr
00028610 g     F .text	00000074 __fpclassifyd
00027e30 g     F .text	000000a4 __ratio
00029e18 g     F .text	0000001c __vfiprintf_internal
0002ef4c g     F .text	0000021c altera_avalon_jtag_uart_read
0002b2d0 g     F .text	00000064 .hidden __udivsi3
0002dec8 g     F .text	000000ac isatty
0003044c g     O .rodata	000000c8 __mprec_tens
00026b4c g     F .text	0000000c __locale_charset
00033c6c g     O .bss	00000004 __malloc_top_pad
00032124 g     O .rwdata	00000004 __mb_cur_max
00026b7c g     F .text	0000000c _localeconv_r
000273c8 g     F .text	0000003c __i2b
0002642c g     F .text	000004c8 __sfvwrite_r
000218f8 g     F .text	00000054 _sbrk_r
0002804c g     F .text	00000060 _read_r
0003213c g     O .rwdata	00000004 alt_max_fd
00029fcc g     F .text	000000f0 _fclose_r
00025b6c g     F .text	00000030 fflush
00033c68 g     O .bss	00000004 __malloc_max_sbrked_mem
0002b3b4 g     F .text	000008ac .hidden __adddf3
00027bd8 g     F .text	0000010c __b2d
0002ac14 g     F .text	000005c4 .hidden __umoddi3
0002e09c g     F .text	000000dc lseek
00032114 g     O .rwdata	00000004 _global_impure_ptr
000280ac g     F .text	00000564 _realloc_r
00033dc0 g       *ABS*	00000000 __bss_end
0002faa4 g     F .text	000000f0 alt_iic_isr_register
0002fd90 g     F .text	00000108 alt_tick
0002a618 g     F .text	000005fc .hidden __udivdi3
0002a234 g     F .text	00000024 _fputwc_r
00030424 g     O .rodata	00000028 __mprec_bigtens
0003210c g     O .rwdata	00000004 img1
000271ac g     F .text	00000104 __s2b
0002db4c g     F .text	000000a8 .hidden __floatunsidf
00027918 g     F .text	00000060 __mcmp
00025f1c g     F .text	00000018 __fp_lock_all
0002fa58 g     F .text	0000004c alt_ic_irq_enabled
0002fcf4 g     F .text	0000009c alt_alarm_stop
00033c88 g     O .bss	00000004 alt_irq_active
000205ec g     F .text	00000444 _fseeko_r
000200fc g     F .exceptions	000000d4 alt_irq_handler
00030f04 g     O .rwdata	00000028 alt_dev_null
0002f4b8 g     F .text	00000020 alt_dcache_flush_all
000272b0 g     F .text	00000068 __hi0bits
0002d9f0 g     F .text	00000080 .hidden __fixdfsi
00032154 g       *ABS*	00000000 __ram_rwdata_end
00032134 g     O .rwdata	00000008 alt_dev_list
0002e770 g     F .text	00000100 write
00030660 g       *ABS*	00000000 __ram_rodata_end
0002ddd4 g     F .text	000000b8 fstat
000205a8 g     F .text	00000024 fprintf
0002c794 g     F .text	000000f4 .hidden __ledf2
00027690 g     F .text	00000140 __pow5mult
0002890c g     F .text	0000150c ___vfiprintf_internal_r
00033c78 g     O .bss	00000004 __nlocale_changed
0002b334 g     F .text	00000058 .hidden __umodsi3
00033dc0 g       *ABS*	00000000 end
00020a30 g     F .text	0000001c fseeko
00020000 g       *ABS*	00000000 __alt_mem_MemoriaPrograma
000205d0 g     F .text	0000001c fseek
0002ea88 g     F .text	000000c0 altera_avalon_jtag_uart_init
00033c54 g     O .bss	00000004 i
000201d0 g     F .exceptions	00000060 alt_instruction_exception_entry
000302ec g       *ABS*	00000000 __CTOR_LIST__
00040000 g       *ABS*	00000000 __alt_stack_pointer
0002dbf4 g     F .text	00000064 .hidden __clzsi2
0002f168 g     F .text	00000224 altera_avalon_jtag_uart_write
00040000 g       *ABS*	00000000 __alt_mem_MemoriaImagem2
00025f0c g     F .text	00000004 __sfp_lock_acquire
00026c0c g     F .text	000000e4 memchr
00021a88 g     F .text	000022dc ___vfprintf_internal_r
0002611c g     F .text	00000310 _free_r
00026b58 g     F .text	00000010 __locale_mb_cur_max
00030138 g     F .text	00000180 __call_exitprocs
00033c74 g     O .bss	00000004 __mlocale_changed
0003211c g     O .rwdata	00000004 __malloc_sbrk_base
00020230 g     F .text	0000003c _start
00033c8c g     O .bss	00000004 _alt_tick_rate
000277d0 g     F .text	00000148 __lshift
00033c90 g     O .bss	00000004 _alt_nticks
0002e4fc g     F .text	00000104 read
0002e8dc g     F .text	00000048 alt_sys_init
000216a8 g     F .text	00000060 _open_r
00030020 g     F .text	00000118 __register_exitproc
00027404 g     F .text	0000028c __multiply
0002edf4 g     F .text	00000068 altera_avalon_jtag_uart_close
0002b38c g     F .text	00000028 .hidden __mulsi3
00030660 g       *ABS*	00000000 __ram_rwdata_start
000302ec g       *ABS*	00000000 __ram_rodata_start
00033c98 g     O .bss	00000028 __malloc_current_mallinfo
00027ce4 g     F .text	0000014c __d2b
0002e924 g     F .text	00000060 altera_avalon_jtag_uart_read_fd
0002f810 g     F .text	000000c4 alt_get_fd
00023ff0 g     F .text	00000054 _close_r
0002ffa4 g     F .text	0000007c memcmp
0002e9e4 g     F .text	00000050 altera_avalon_jtag_uart_close_fd
00033dc0 g       *ABS*	00000000 __alt_stack_base
0002ea34 g     F .text	00000054 altera_avalon_jtag_uart_ioctl_fd
00020aa8 g     F .text	000000dc _fwrite_r
00033c48 g     O .bss	00000004 contador
00023e9c g     F .text	00000154 __swsetup_r
0002bc60 g     F .text	000009d0 .hidden __divdf3
00025dcc g     F .text	00000118 __sfp
00027f48 g     F .text	00000078 __copybits
00030a84 g     O .rwdata	00000408 __malloc_av_
00025f18 g     F .text	00000004 __sinit_lock_release
0002c888 g     F .text	0000086c .hidden __muldf3
0002194c g     F .text	00000054 __sread
0002f708 g     F .text	00000108 alt_find_file
0002f514 g     F .text	000000a4 alt_dev_llist_insert
0002e1f4 g     F .text	00000024 __malloc_lock
00020580 g     F .text	00000028 _fprintf_r
0002e684 g     F .text	000000b0 sbrk
00025b10 g     F .text	0000005c _fflush_r
00029ef0 g     F .text	000000dc _calloc_r
00020568 g     F .text	00000018 fopen
00033c48 g       *ABS*	00000000 __bss_start
00021580 g     F .text	00000128 memset
0002026c g     F .text	00000208 main
00033c84 g     O .bss	00000004 alt_envp
00033c64 g     O .bss	00000004 __malloc_max_total_mem
0002e984 g     F .text	00000060 altera_avalon_jtag_uart_write_fd
0002a418 g     F .text	00000018 __swbuf
00021a80 g     F .text	00000008 __sclose
00040000 g       *ABS*	00000000 __alt_heap_limit
0002a0bc g     F .text	00000014 fclose
0002426c g     F .text	00001688 _dtoa_r
00020d74 g     F .text	0000080c _malloc_r
0002a58c g     F .text	00000030 __ascii_wctomb
00032140 g     O .rwdata	00000004 alt_errno
000268f4 g     F .text	000000c4 _fwalk
0002b1d8 g     F .text	00000084 .hidden __divsi3
00025ff8 g     F .text	00000124 _malloc_trim_r
000302ec g       *ABS*	00000000 __CTOR_END__
00028684 g     F .text	000000dc strcmp
000302ec g       *ABS*	00000000 __flash_rodata_start
000302ec g       *ABS*	00000000 __DTOR_LIST__
0002c630 g     F .text	00000088 .hidden __nedf2
0002e8a4 g     F .text	00000038 alt_irq_init
0002e600 g     F .text	00000084 alt_release_fd
00030534 g     O .rodata	00000100 .hidden __clz_tab
00033c70 g     O .bss	00000004 _PathLocale
0002ff58 g     F .text	00000014 atexit
00023e3c g     F .text	00000060 _write_r
00026b88 g     F .text	00000018 setlocale
00032118 g     O .rwdata	00000004 _impure_ptr
00033c7c g     O .bss	00000004 alt_argc
000258f4 g     F .text	0000021c __sflush_r
0002f618 g     F .text	00000060 _do_dtors
00026b74 g     F .text	00000008 __locale_cjk_lang
000205cc g     F .text	00000004 _fseek_r
00021724 g     F .text	000001d4 __srefill_r
00020020 g       .exceptions	00000000 alt_irq_entry
00027b74 g     F .text	00000064 __ulp
00025f34 g     F .text	00000018 __fp_unlock_all
0003212c g     O .rwdata	00000008 alt_fs_list
00020020 g       *ABS*	00000000 __ram_exceptions_start
00026ba0 g     F .text	0000000c localeconv
00060000 g       *ABS*	00000000 __alt_mem_MemoriaImagem1
0002f8f4 g     F .text	00000050 alt_ic_isr_register
00020b84 g     F .text	00000034 fwrite
00032154 g       *ABS*	00000000 _edata
00033dc0 g       *ABS*	00000000 _end
0002a0d0 g     F .text	00000164 __fputwc
00020230 g       *ABS*	00000000 __ram_exceptions_end
0002ee5c g     F .text	000000f0 altera_avalon_jtag_uart_ioctl
0002f9cc g     F .text	0000008c alt_ic_irq_disable
000219a8 g     F .text	0000007c __swrite
00032120 g     O .rwdata	00000004 __malloc_trim_threshold
00026b68 g     F .text	0000000c __locale_msgcharset
0002ff6c g     F .text	00000038 exit
000269b8 g     F .text	000000c4 _fwalk_reent
00027978 g     F .text	000001fc __mdiff
0002b25c g     F .text	00000074 .hidden __modsi3
00040000 g       *ABS*	00000000 __alt_data_end
00020020 g     F .exceptions	00000000 alt_exception
00025f10 g     F .text	00000004 __sfp_lock_release
00020474 g     F .text	000000f4 _fopen_r
000302b8 g     F .text	00000034 _exit
0002f38c g     F .text	0000012c alt_alarm_start
00020bb8 g     F .text	000001bc __smakebuf_r
00028760 g     F .text	00000098 strlen
0002e364 g     F .text	0000015c open
0002c6b8 g     F .text	000000dc .hidden __gedf2
00032128 g     O .rwdata	00000004 __wctomb
000288f4 g     F .text	00000018 __sprint_r
0002f8d4 g     F .text	00000020 alt_icache_flush_all
00032148 g     O .rwdata	00000004 alt_priority_mask
0002f944 g     F .text	00000088 alt_ic_irq_enable
00033c58 g     O .bss	00000004 sub
00023d64 g     F .text	0000001c __vfprintf_internal
0002a5bc g     F .text	0000005c _wctomb_r
0002d0f4 g     F .text	000008fc .hidden __subdf3
00027318 g     F .text	000000b0 __lo0bits
0003214c g     O .rwdata	00000008 alt_alarm_list
0002f5b8 g     F .text	00000060 _do_ctors
0002a4cc g     F .text	000000c0 wcrtomb
0002dc94 g     F .text	000000d8 close
0002dfdc g     F .text	00000084 alt_load
0002a258 g     F .text	00000080 fputwc
00025f14 g     F .text	00000004 __sinit_lock_acquire
00027064 g     F .text	00000148 __multadd
00033c5c g     O .bss	00000004 finalImage
0002703c g     F .text	00000028 _Bfree



Disassembly of section .entry:

00020000 <__reset>:
 * Jump to the _start entry point in the .text section if reset code
 * is allowed or if optimizing for RTL simulation.
 */
#if defined(ALT_ALLOW_CODE_AT_RESET) || defined(ALT_SIM_OPTIMIZE)
    /* Jump to the _start entry point in the .text section. */
    movhi r1, %hi(_start)
   20000:	004000b4 	movhi	at,2
    ori r1, r1, %lo(_start)
   20004:	08408c14 	ori	at,at,560
    jmp r1
   20008:	0800683a 	jmp	at
	...

Disassembly of section .exceptions:

00020020 <alt_exception>:

#else /* ALT_EXCEPTION_STACK disabled */
        /* 
         * Reserve space on normal stack for registers about to be pushed.
         */
        addi  sp, sp, -76
   20020:	deffed04 	addi	sp,sp,-76
         * documentation for details).
         *
         * Leave a gap in the stack frame at 4(sp) for the muldiv handler to
         * store zero into.
         */
        stw   ra,  0(sp)
   20024:	dfc00015 	stw	ra,0(sp)
        stw   r1,   8(sp)
   20028:	d8400215 	stw	at,8(sp)
        stw   r2,  12(sp)
   2002c:	d8800315 	stw	r2,12(sp)
        stw   r3,  16(sp)
   20030:	d8c00415 	stw	r3,16(sp)
        stw   r4,  20(sp)
   20034:	d9000515 	stw	r4,20(sp)
        stw   r5,  24(sp)
   20038:	d9400615 	stw	r5,24(sp)
        stw   r6,  28(sp)
   2003c:	d9800715 	stw	r6,28(sp)
        stw   r7,  32(sp)
   20040:	d9c00815 	stw	r7,32(sp)
        rdctl r5, estatus   /* Read early to avoid usage stall */
   20044:	000b307a 	rdctl	r5,estatus
        stw   r8,  36(sp)
   20048:	da000915 	stw	r8,36(sp)
        stw   r9,  40(sp)
   2004c:	da400a15 	stw	r9,40(sp)
        stw   r10, 44(sp)
   20050:	da800b15 	stw	r10,44(sp)
        stw   r11, 48(sp)
   20054:	dac00c15 	stw	r11,48(sp)
        stw   r12, 52(sp)
   20058:	db000d15 	stw	r12,52(sp)
        stw   r13, 56(sp)
   2005c:	db400e15 	stw	r13,56(sp)
        stw   r14, 60(sp)
   20060:	db800f15 	stw	r14,60(sp)
        stw   r15, 64(sp)
   20064:	dbc01015 	stw	r15,64(sp)
        /*
         * ea-4 contains the address of the instruction being executed
         * when the exception occured. For interrupt exceptions, we will
         * will be re-issue the isntruction. Store it in 72(sp)
         */
        stw   r5,  68(sp)  /* estatus */
   20068:	d9401115 	stw	r5,68(sp)
        addi  r15, ea, -4  /* instruction that caused exception */
   2006c:	ebffff04 	addi	r15,ea,-4
        stw   r15,  72(sp)
   20070:	dbc01215 	stw	r15,72(sp)
#else
        /*
         * Test to see if the exception was a software exception or caused 
         * by an external interrupt, and vector accordingly.
         */
        rdctl r4, ipending
   20074:	0009313a 	rdctl	r4,ipending
        andi  r2, r5, 1
   20078:	2880004c 	andi	r2,r5,1
        beq   r2, zero, .Lnot_irq
   2007c:	10000326 	beq	r2,zero,2008c <alt_exception+0x6c>
        beq   r4, zero, .Lnot_irq
   20080:	20000226 	beq	r4,zero,2008c <alt_exception+0x6c>
        /*
         * Now that all necessary registers have been preserved, call 
         * alt_irq_handler() to process the interrupts.
         */

        call alt_irq_handler
   20084:	00200fc0 	call	200fc <alt_irq_handler>

        .section .exceptions.irqreturn, "xa"

        br    .Lexception_exit
   20088:	00000706 	br	200a8 <alt_exception+0x88>
         * upon completion, so we write ea (address of instruction *after*
         * the one where the exception occured) into 72(sp). The actual
         * instruction that caused the exception is written in r2, which these
         * handlers will utilize.
         */
        stw ea, 72(sp) /* EA is PC+4 so will skip over instruction causing exception */
   2008c:	df401215 	stw	ea,72(sp)
.Lunknown_16bit:
        addi.n r4, r4, 2 /* Need PC+2 to skip over instruction causing exception */
        stw r4, 72(sp)

#else /* CDX is not Enabled and all instructions are 32bits */
        ldw r2, -4(ea) /* Instruction value that caused exception */
   20090:	e8bfff17 	ldw	r2,-4(ea)
         * debugger is present) or go into an infinite loop since the
         * handling behavior is undefined; in that case we will not return here.
         */

        /* Load exception-causing address as first argument (r4) */
        addi   r4, ea, -4
   20094:	e93fff04 	addi	r4,ea,-4

        /* Call the instruction-exception entry */
        call   alt_instruction_exception_entry
   20098:	00201d00 	call	201d0 <alt_instruction_exception_entry>
         * instruction
         *
         * Return code was 0: Skip. The instruction after the exception is
         * already stored in 72(sp).
         */
        bne   r2, r0, .Lexception_exit
   2009c:	1000021e 	bne	r2,zero,200a8 <alt_exception+0x88>

        /*
         * Otherwise, modify 72(sp) to re-issue the instruction that caused the
         * exception.
         */
        addi  r15, ea, -4  /* instruction that caused exception */
   200a0:	ebffff04 	addi	r15,ea,-4
        stw   r15,  72(sp)
   200a4:	dbc01215 	stw	r15,72(sp)
        /* 
         * Restore the saved registers, so that all general purpose registers 
         * have been restored to their state at the time the interrupt occured.
         */

        ldw   r5,  68(sp)
   200a8:	d9401117 	ldw	r5,68(sp)
        ldw   ea,  72(sp)  /* This becomes the PC once eret is executed */
   200ac:	df401217 	ldw	ea,72(sp)
        ldw   ra,   0(sp)
   200b0:	dfc00017 	ldw	ra,0(sp)

        wrctl estatus, r5
   200b4:	2801707a 	wrctl	estatus,r5

        ldw   r1,   8(sp)
   200b8:	d8400217 	ldw	at,8(sp)
        ldw   r2,  12(sp)
   200bc:	d8800317 	ldw	r2,12(sp)
        ldw   r3,  16(sp)
   200c0:	d8c00417 	ldw	r3,16(sp)
        ldw   r4,  20(sp)
   200c4:	d9000517 	ldw	r4,20(sp)
        ldw   r5,  24(sp)
   200c8:	d9400617 	ldw	r5,24(sp)
        ldw   r6,  28(sp)
   200cc:	d9800717 	ldw	r6,28(sp)
        ldw   r7,  32(sp)
   200d0:	d9c00817 	ldw	r7,32(sp)

#if defined(ALT_EXCEPTION_STACK) && defined(ALT_STACK_CHECK)
        ldw   et, %gprel(alt_exception_old_stack_limit)(gp)
#endif

        ldw   r8,  36(sp)
   200d4:	da000917 	ldw	r8,36(sp)
        ldw   r9,  40(sp)
   200d8:	da400a17 	ldw	r9,40(sp)
        ldw   r10, 44(sp)
   200dc:	da800b17 	ldw	r10,44(sp)
        ldw   r11, 48(sp)
   200e0:	dac00c17 	ldw	r11,48(sp)
        ldw   r12, 52(sp)
   200e4:	db000d17 	ldw	r12,52(sp)
        ldw   r13, 56(sp)
   200e8:	db400e17 	ldw	r13,56(sp)
        ldw   r14, 60(sp)
   200ec:	db800f17 	ldw	r14,60(sp)
        ldw   r15, 64(sp)
   200f0:	dbc01017 	ldw	r15,64(sp)
        stw   et, %gprel(alt_stack_limit_value)(gp)
        stw   zero, %gprel(alt_exception_old_stack_limit)(gp)
#endif /* ALT_STACK_CHECK */
        ldw   sp,  76(sp)
#else /* ALT_EXCEPTION_STACK disabled */
        addi  sp, sp, 76
   200f4:	dec01304 	addi	sp,sp,76

        /*
         * Return to the interrupted instruction.
         */

        eret
   200f8:	ef80083a 	eret

000200fc <alt_irq_handler>:
 * instruction is present if the macro ALT_CI_INTERRUPT_VECTOR defined.
 */

void alt_irq_handler (void) __attribute__ ((section (".exceptions")));
void alt_irq_handler (void)
{
   200fc:	defff904 	addi	sp,sp,-28
   20100:	dfc00615 	stw	ra,24(sp)
   20104:	df000515 	stw	fp,20(sp)
   20108:	df000504 	addi	fp,sp,20
  
  /*
   * Notify the operating system that we are at interrupt level.
   */ 
  
  ALT_OS_INT_ENTER();
   2010c:	0001883a 	nop
#ifndef NIOS2_EIC_PRESENT
static ALT_INLINE alt_u32 ALT_ALWAYS_INLINE alt_irq_pending (void)
{
  alt_u32 active;

  NIOS2_READ_IPENDING (active);
   20110:	0005313a 	rdctl	r2,ipending
   20114:	e0bffe15 	stw	r2,-8(fp)

  return active;
   20118:	e0bffe17 	ldw	r2,-8(fp)
   * Consider the case where the high priority interupt is asserted during
   * the interrupt entry sequence for a lower priority interrupt to see why
   * this is the case.
   */

  active = alt_irq_pending ();
   2011c:	e0bffb15 	stw	r2,-20(fp)

  do
  {
    i = 0;
   20120:	e03ffd15 	stw	zero,-12(fp)
    mask = 1;
   20124:	00800044 	movi	r2,1
   20128:	e0bffc15 	stw	r2,-16(fp)
     * called to clear the interrupt condition.
     */

    do
    {
      if (active & mask)
   2012c:	e0fffb17 	ldw	r3,-20(fp)
   20130:	e0bffc17 	ldw	r2,-16(fp)
   20134:	1884703a 	and	r2,r3,r2
   20138:	10001426 	beq	r2,zero,2018c <alt_irq_handler+0x90>
      { 
#ifdef ALT_ENHANCED_INTERRUPT_API_PRESENT
        alt_irq[i].handler(alt_irq[i].context); 
   2013c:	008000f4 	movhi	r2,3
   20140:	108f3004 	addi	r2,r2,15552
   20144:	e0fffd17 	ldw	r3,-12(fp)
   20148:	180690fa 	slli	r3,r3,3
   2014c:	10c5883a 	add	r2,r2,r3
   20150:	10c00017 	ldw	r3,0(r2)
   20154:	008000f4 	movhi	r2,3
   20158:	108f3004 	addi	r2,r2,15552
   2015c:	e13ffd17 	ldw	r4,-12(fp)
   20160:	200890fa 	slli	r4,r4,3
   20164:	1105883a 	add	r2,r2,r4
   20168:	10800104 	addi	r2,r2,4
   2016c:	10800017 	ldw	r2,0(r2)
   20170:	1009883a 	mov	r4,r2
   20174:	183ee83a 	callr	r3
#else
        alt_irq[i].handler(alt_irq[i].context, i); 
#endif
        break;
   20178:	0001883a 	nop
#ifndef NIOS2_EIC_PRESENT
static ALT_INLINE alt_u32 ALT_ALWAYS_INLINE alt_irq_pending (void)
{
  alt_u32 active;

  NIOS2_READ_IPENDING (active);
   2017c:	0005313a 	rdctl	r2,ipending
   20180:	e0bfff15 	stw	r2,-4(fp)

  return active;
   20184:	e0bfff17 	ldw	r2,-4(fp)
   20188:	00000706 	br	201a8 <alt_irq_handler+0xac>
      }
      mask <<= 1;
   2018c:	e0bffc17 	ldw	r2,-16(fp)
   20190:	1085883a 	add	r2,r2,r2
   20194:	e0bffc15 	stw	r2,-16(fp)
      i++;
   20198:	e0bffd17 	ldw	r2,-12(fp)
   2019c:	10800044 	addi	r2,r2,1
   201a0:	e0bffd15 	stw	r2,-12(fp)

    } while (1);
   201a4:	003fe106 	br	2012c <__alt_mem_MemoriaImagem1+0xfffc012c>

    active = alt_irq_pending ();
   201a8:	e0bffb15 	stw	r2,-20(fp)
    
  } while (active);
   201ac:	e0bffb17 	ldw	r2,-20(fp)
   201b0:	103fdb1e 	bne	r2,zero,20120 <__alt_mem_MemoriaImagem1+0xfffc0120>

  /*
   * Notify the operating system that interrupt processing is complete.
   */ 

  ALT_OS_INT_EXIT();
   201b4:	0001883a 	nop
}
   201b8:	0001883a 	nop
   201bc:	e037883a 	mov	sp,fp
   201c0:	dfc00117 	ldw	ra,4(sp)
   201c4:	df000017 	ldw	fp,0(sp)
   201c8:	dec00204 	addi	sp,sp,8
   201cc:	f800283a 	ret

000201d0 <alt_instruction_exception_entry>:
 * that handler if it has been registered. Absent a handler, it will
 * break break or hang as discussed below.
 */
int 
alt_instruction_exception_entry (alt_u32 exception_pc)
{
   201d0:	defffb04 	addi	sp,sp,-20
   201d4:	dfc00415 	stw	ra,16(sp)
   201d8:	df000315 	stw	fp,12(sp)
   201dc:	df000304 	addi	fp,sp,12
   201e0:	e13fff15 	stw	r4,-4(fp)
  cause = ( (cause & NIOS2_EXCEPTION_REG_CAUSE_MASK) >>
              NIOS2_EXCEPTION_REG_CAUSE_OFST );

  NIOS2_READ_BADADDR(badaddr);
#else
  cause = NIOS2_EXCEPTION_CAUSE_NOT_PRESENT;
   201e4:	00bfffc4 	movi	r2,-1
   201e8:	e0bffd15 	stw	r2,-12(fp)
  badaddr = 0;
   201ec:	e03ffe15 	stw	zero,-8(fp)
#endif /* NIOS2_HAS_EXTRA_EXCEPTION_INFO */

  if(alt_instruction_exception_handler) {
   201f0:	d0a6e217 	ldw	r2,-25720(gp)
   201f4:	10000726 	beq	r2,zero,20214 <alt_instruction_exception_entry+0x44>
     * Call handler. Its return value indicates whether the exception-causing
     * instruction should be re-issued. The code that called us,
     * alt_eceptions_entry.S, will look at this value and adjust the ea
     * register as necessary
     */
    return alt_instruction_exception_handler(cause, exception_pc, badaddr);
   201f8:	d0a6e217 	ldw	r2,-25720(gp)
   201fc:	e0fffd17 	ldw	r3,-12(fp)
   20200:	e1bffe17 	ldw	r6,-8(fp)
   20204:	e17fff17 	ldw	r5,-4(fp)
   20208:	1809883a 	mov	r4,r3
   2020c:	103ee83a 	callr	r2
   20210:	00000206 	br	2021c <alt_instruction_exception_entry+0x4c>
   *    (a peripheral which negates its interrupt output before its
   *    interrupt handler has been executed will cause spurious interrupts)
   */
  else {
#ifdef NIOS2_HAS_DEBUG_STUB
    NIOS2_BREAK();
   20214:	003da03a 	break	0
      ;
#endif /* NIOS2_HAS_DEBUG_STUB */
  }

  /* We should not get here. Remove compiler warning. */
  return NIOS2_EXCEPTION_RETURN_REISSUE_INST;
   20218:	0005883a 	mov	r2,zero
}
   2021c:	e037883a 	mov	sp,fp
   20220:	dfc00117 	ldw	ra,4(sp)
   20224:	df000017 	ldw	fp,0(sp)
   20228:	dec00204 	addi	sp,sp,8
   2022c:	f800283a 	ret

Disassembly of section .text:

00020230 <_start>:

    /*
     * Now that the caches are initialized, set up the stack pointer and global pointer.
     * The values provided by the linker are assumed to be correctly aligned.
     */
    movhi sp, %hi(__alt_stack_pointer)
   20230:	06c00134 	movhi	sp,4
    ori sp, sp, %lo(__alt_stack_pointer)
   20234:	dec00014 	ori	sp,sp,0
    movhi gp, %hi(_gp)
   20238:	068000f4 	movhi	gp,3
    ori gp, gp, %lo(_gp)
   2023c:	d6a84314 	ori	gp,gp,41228
 */
#ifndef ALT_SIM_OPTIMIZE
    /* Log that the BSS is about to be cleared. */
    ALT_LOG_PUTS(alt_log_msg_bss)

    movhi r2, %hi(__bss_start)
   20240:	008000f4 	movhi	r2,3
    ori r2, r2, %lo(__bss_start)
   20244:	108f1214 	ori	r2,r2,15432

    movhi r3, %hi(__bss_end)
   20248:	00c000f4 	movhi	r3,3
    ori r3, r3, %lo(__bss_end)
   2024c:	18cf7014 	ori	r3,r3,15808

    beq r2, r3, 1f
   20250:	10c00326 	beq	r2,r3,20260 <_start+0x30>

0:
    stw zero, (r2)
   20254:	10000015 	stw	zero,0(r2)
    addi r2, r2, 4
   20258:	10800104 	addi	r2,r2,4
    bltu r2, r3, 0b
   2025c:	10fffd36 	bltu	r2,r3,20254 <__alt_mem_MemoriaImagem1+0xfffc0254>
     * section aren't defined until alt_load() has been called).
     */
    mov   et, zero
#endif

    call alt_load
   20260:	002dfdc0 	call	2dfdc <alt_load>

    /* Log that alt_main is about to be called. */
    ALT_LOG_PUTS(alt_log_msg_alt_main)

    /* Call the C entry point. It should never return. */
    call alt_main
   20264:	002e1780 	call	2e178 <alt_main>

00020268 <alt_after_alt_main>:

    /* Wait in infinite loop in case alt_main does return. */
alt_after_alt_main:
    br alt_after_alt_main
   20268:	003fff06 	br	20268 <__alt_mem_MemoriaImagem1+0xfffc0268>

0002026c <main>:
#define MEDIDOR_LEITURA (int *) 0x81008
#define MEDIDOR_ESCRITA (int *) 0x8100c
int i, n, wordlen, sub, * img1 = MEMO_IMAGEM_1, * img2 = MEMO_IMAGEM_2, contador = 0;
FILE *finalImage;

int main(){
   2026c:	defffe04 	addi	sp,sp,-8
   20270:	dfc00115 	stw	ra,4(sp)
   20274:	df000015 	stw	fp,0(sp)
   20278:	d839883a 	mov	fp,sp
	wordlen = 8;
   2027c:	00800204 	movi	r2,8
   20280:	d0a6d015 	stw	r2,-25792(gp)
    n = 256*320;
   20284:	00800074 	movhi	r2,1
   20288:	10900004 	addi	r2,r2,16384
   2028c:	d0a6d115 	stw	r2,-25788(gp)

    finalImage = fopen("finalImage.mif", "w");
   20290:	014000f4 	movhi	r5,3
   20294:	2940bb04 	addi	r5,r5,748
   20298:	010000f4 	movhi	r4,3
   2029c:	2100bc04 	addi	r4,r4,752
   202a0:	00205680 	call	20568 <fopen>
   202a4:	d0a6d415 	stw	r2,-25776(gp)

    fprintf(finalImage, "DEPTH=%d;\n", n);
   202a8:	d0a6d417 	ldw	r2,-25776(gp)
   202ac:	d0e6d117 	ldw	r3,-25788(gp)
   202b0:	180d883a 	mov	r6,r3
   202b4:	014000f4 	movhi	r5,3
   202b8:	2940c004 	addi	r5,r5,768
   202bc:	1009883a 	mov	r4,r2
   202c0:	00205a80 	call	205a8 <fprintf>
	fprintf(finalImage, "WIDTH=%d;\n", wordlen);
   202c4:	d0a6d417 	ldw	r2,-25776(gp)
   202c8:	d0e6d017 	ldw	r3,-25792(gp)
   202cc:	180d883a 	mov	r6,r3
   202d0:	014000f4 	movhi	r5,3
   202d4:	2940c304 	addi	r5,r5,780
   202d8:	1009883a 	mov	r4,r2
   202dc:	00205a80 	call	205a8 <fprintf>
	fprintf(finalImage, "ADDRESS_RADIX = UNS;\n");
   202e0:	d0a6d417 	ldw	r2,-25776(gp)
   202e4:	100f883a 	mov	r7,r2
   202e8:	01800544 	movi	r6,21
   202ec:	01400044 	movi	r5,1
   202f0:	010000f4 	movhi	r4,3
   202f4:	2100c604 	addi	r4,r4,792
   202f8:	0020b840 	call	20b84 <fwrite>
	fprintf(finalImage, "DATA_RADIX = UNS;\n");
   202fc:	d0a6d417 	ldw	r2,-25776(gp)
   20300:	100f883a 	mov	r7,r2
   20304:	01800484 	movi	r6,18
   20308:	01400044 	movi	r5,1
   2030c:	010000f4 	movhi	r4,3
   20310:	2100cc04 	addi	r4,r4,816
   20314:	0020b840 	call	20b84 <fwrite>
	fprintf(finalImage, "CONTENT\t");
   20318:	d0a6d417 	ldw	r2,-25776(gp)
   2031c:	100f883a 	mov	r7,r2
   20320:	01800204 	movi	r6,8
   20324:	01400044 	movi	r5,1
   20328:	010000f4 	movhi	r4,3
   2032c:	2100d104 	addi	r4,r4,836
   20330:	0020b840 	call	20b84 <fwrite>
	fprintf(finalImage, "BEGIN\n");
   20334:	d0a6d417 	ldw	r2,-25776(gp)
   20338:	100f883a 	mov	r7,r2
   2033c:	01800184 	movi	r6,6
   20340:	01400044 	movi	r5,1
   20344:	010000f4 	movhi	r4,3
   20348:	2100d404 	addi	r4,r4,848
   2034c:	0020b840 	call	20b84 <fwrite>

	*MEDIDOR_ESCRITA = 0;
   20350:	00800234 	movhi	r2,8
   20354:	10840304 	addi	r2,r2,4108
   20358:	10000015 	stw	zero,0(r2)
	*MEDIDOR_ESCRITA = 1;
   2035c:	00800234 	movhi	r2,8
   20360:	10840304 	addi	r2,r2,4108
   20364:	00c00044 	movi	r3,1
   20368:	10c00015 	stw	r3,0(r2)
    for (i = 0; i < n; i++) {
   2036c:	d026d215 	stw	zero,-25784(gp)
   20370:	00002c06 	br	20424 <main+0x1b8>
    	if(img2 > img1) {
   20374:	d0a00117 	ldw	r2,-32764(gp)
   20378:	d0e00017 	ldw	r3,-32768(gp)
   2037c:	18800f2e 	bgeu	r3,r2,203bc <main+0x150>
    		sub = img2[i] - img1[i];
   20380:	d0e00117 	ldw	r3,-32764(gp)
   20384:	d0a6d217 	ldw	r2,-25784(gp)
   20388:	1085883a 	add	r2,r2,r2
   2038c:	1085883a 	add	r2,r2,r2
   20390:	1885883a 	add	r2,r3,r2
   20394:	10c00017 	ldw	r3,0(r2)
   20398:	d1200017 	ldw	r4,-32768(gp)
   2039c:	d0a6d217 	ldw	r2,-25784(gp)
   203a0:	1085883a 	add	r2,r2,r2
   203a4:	1085883a 	add	r2,r2,r2
   203a8:	2085883a 	add	r2,r4,r2
   203ac:	10800017 	ldw	r2,0(r2)
   203b0:	1885c83a 	sub	r2,r3,r2
   203b4:	d0a6d315 	stw	r2,-25780(gp)
   203b8:	00000e06 	br	203f4 <main+0x188>
    	}
    	else {
    		sub = img1[i] - img2[i];
   203bc:	d0e00017 	ldw	r3,-32768(gp)
   203c0:	d0a6d217 	ldw	r2,-25784(gp)
   203c4:	1085883a 	add	r2,r2,r2
   203c8:	1085883a 	add	r2,r2,r2
   203cc:	1885883a 	add	r2,r3,r2
   203d0:	10c00017 	ldw	r3,0(r2)
   203d4:	d1200117 	ldw	r4,-32764(gp)
   203d8:	d0a6d217 	ldw	r2,-25784(gp)
   203dc:	1085883a 	add	r2,r2,r2
   203e0:	1085883a 	add	r2,r2,r2
   203e4:	2085883a 	add	r2,r4,r2
   203e8:	10800017 	ldw	r2,0(r2)
   203ec:	1885c83a 	sub	r2,r3,r2
   203f0:	d0a6d315 	stw	r2,-25780(gp)
    	}
    	fprintf(finalImage, "\t%d\t:\t%d;\n", i, sub);
   203f4:	d0a6d417 	ldw	r2,-25776(gp)
   203f8:	d0e6d217 	ldw	r3,-25784(gp)
   203fc:	d126d317 	ldw	r4,-25780(gp)
   20400:	200f883a 	mov	r7,r4
   20404:	180d883a 	mov	r6,r3
   20408:	014000f4 	movhi	r5,3
   2040c:	2940d604 	addi	r5,r5,856
   20410:	1009883a 	mov	r4,r2
   20414:	00205a80 	call	205a8 <fprintf>
	fprintf(finalImage, "CONTENT\t");
	fprintf(finalImage, "BEGIN\n");

	*MEDIDOR_ESCRITA = 0;
	*MEDIDOR_ESCRITA = 1;
    for (i = 0; i < n; i++) {
   20418:	d0a6d217 	ldw	r2,-25784(gp)
   2041c:	10800044 	addi	r2,r2,1
   20420:	d0a6d215 	stw	r2,-25784(gp)
   20424:	d0e6d217 	ldw	r3,-25784(gp)
   20428:	d0a6d117 	ldw	r2,-25788(gp)
   2042c:	18bfd116 	blt	r3,r2,20374 <__alt_mem_MemoriaImagem1+0xfffc0374>
    	else {
    		sub = img1[i] - img2[i];
    	}
    	fprintf(finalImage, "\t%d\t:\t%d;\n", i, sub);
    }
    *MEDIDOR_ESCRITA = 2;
   20430:	00800234 	movhi	r2,8
   20434:	10840304 	addi	r2,r2,4108
   20438:	00c00084 	movi	r3,2
   2043c:	10c00015 	stw	r3,0(r2)
    fprintf(finalImage,"END;");
   20440:	d0a6d417 	ldw	r2,-25776(gp)
   20444:	100f883a 	mov	r7,r2
   20448:	01800104 	movi	r6,4
   2044c:	01400044 	movi	r5,1
   20450:	010000f4 	movhi	r4,3
   20454:	2100d904 	addi	r4,r4,868
   20458:	0020b840 	call	20b84 <fwrite>
    return 0;
   2045c:	0005883a 	mov	r2,zero
}
   20460:	e037883a 	mov	sp,fp
   20464:	dfc00117 	ldw	ra,4(sp)
   20468:	df000017 	ldw	fp,0(sp)
   2046c:	dec00204 	addi	sp,sp,8
   20470:	f800283a 	ret

00020474 <_fopen_r>:
   20474:	defffa04 	addi	sp,sp,-24
   20478:	3005883a 	mov	r2,r6
   2047c:	dcc00415 	stw	r19,16(sp)
   20480:	d80d883a 	mov	r6,sp
   20484:	2827883a 	mov	r19,r5
   20488:	100b883a 	mov	r5,r2
   2048c:	dc800315 	stw	r18,12(sp)
   20490:	dfc00515 	stw	ra,20(sp)
   20494:	dc400215 	stw	r17,8(sp)
   20498:	dc000115 	stw	r16,4(sp)
   2049c:	2025883a 	mov	r18,r4
   204a0:	0025f4c0 	call	25f4c <__sflags>
   204a4:	10002726 	beq	r2,zero,20544 <_fopen_r+0xd0>
   204a8:	9009883a 	mov	r4,r18
   204ac:	1023883a 	mov	r17,r2
   204b0:	0025dcc0 	call	25dcc <__sfp>
   204b4:	1021883a 	mov	r16,r2
   204b8:	10002226 	beq	r2,zero,20544 <_fopen_r+0xd0>
   204bc:	d9800017 	ldw	r6,0(sp)
   204c0:	01c06d84 	movi	r7,438
   204c4:	980b883a 	mov	r5,r19
   204c8:	9009883a 	mov	r4,r18
   204cc:	00216a80 	call	216a8 <_open_r>
   204d0:	10001916 	blt	r2,zero,20538 <_fopen_r+0xc4>
   204d4:	8080038d 	sth	r2,14(r16)
   204d8:	008000b4 	movhi	r2,2
   204dc:	10865304 	addi	r2,r2,6476
   204e0:	80800815 	stw	r2,32(r16)
   204e4:	008000b4 	movhi	r2,2
   204e8:	10866a04 	addi	r2,r2,6568
   204ec:	80800915 	stw	r2,36(r16)
   204f0:	008000b4 	movhi	r2,2
   204f4:	10868904 	addi	r2,r2,6692
   204f8:	80800a15 	stw	r2,40(r16)
   204fc:	008000b4 	movhi	r2,2
   20500:	1086a004 	addi	r2,r2,6784
   20504:	8440030d 	sth	r17,12(r16)
   20508:	84000715 	stw	r16,28(r16)
   2050c:	80800b15 	stw	r2,44(r16)
   20510:	8c40400c 	andi	r17,r17,256
   20514:	88000d1e 	bne	r17,zero,2054c <_fopen_r+0xd8>
   20518:	8005883a 	mov	r2,r16
   2051c:	dfc00517 	ldw	ra,20(sp)
   20520:	dcc00417 	ldw	r19,16(sp)
   20524:	dc800317 	ldw	r18,12(sp)
   20528:	dc400217 	ldw	r17,8(sp)
   2052c:	dc000117 	ldw	r16,4(sp)
   20530:	dec00604 	addi	sp,sp,24
   20534:	f800283a 	ret
   20538:	0025f0c0 	call	25f0c <__sfp_lock_acquire>
   2053c:	8000030d 	sth	zero,12(r16)
   20540:	0025f100 	call	25f10 <__sfp_lock_release>
   20544:	0005883a 	mov	r2,zero
   20548:	003ff406 	br	2051c <__alt_mem_MemoriaImagem1+0xfffc051c>
   2054c:	01c00084 	movi	r7,2
   20550:	000d883a 	mov	r6,zero
   20554:	800b883a 	mov	r5,r16
   20558:	9009883a 	mov	r4,r18
   2055c:	00205cc0 	call	205cc <_fseek_r>
   20560:	8005883a 	mov	r2,r16
   20564:	003fed06 	br	2051c <__alt_mem_MemoriaImagem1+0xfffc051c>

00020568 <fopen>:
   20568:	008000f4 	movhi	r2,3
   2056c:	10884604 	addi	r2,r2,8472
   20570:	280d883a 	mov	r6,r5
   20574:	200b883a 	mov	r5,r4
   20578:	11000017 	ldw	r4,0(r2)
   2057c:	00204741 	jmpi	20474 <_fopen_r>

00020580 <_fprintf_r>:
   20580:	defffe04 	addi	sp,sp,-8
   20584:	2809883a 	mov	r4,r5
   20588:	300b883a 	mov	r5,r6
   2058c:	dfc00015 	stw	ra,0(sp)
   20590:	d9c00115 	stw	r7,4(sp)
   20594:	d9800104 	addi	r6,sp,4
   20598:	0023d640 	call	23d64 <__vfprintf_internal>
   2059c:	dfc00017 	ldw	ra,0(sp)
   205a0:	dec00204 	addi	sp,sp,8
   205a4:	f800283a 	ret

000205a8 <fprintf>:
   205a8:	defffd04 	addi	sp,sp,-12
   205ac:	dfc00015 	stw	ra,0(sp)
   205b0:	d9800115 	stw	r6,4(sp)
   205b4:	d9c00215 	stw	r7,8(sp)
   205b8:	d9800104 	addi	r6,sp,4
   205bc:	0023d640 	call	23d64 <__vfprintf_internal>
   205c0:	dfc00017 	ldw	ra,0(sp)
   205c4:	dec00304 	addi	sp,sp,12
   205c8:	f800283a 	ret

000205cc <_fseek_r>:
   205cc:	00205ec1 	jmpi	205ec <_fseeko_r>

000205d0 <fseek>:
   205d0:	008000f4 	movhi	r2,3
   205d4:	10884604 	addi	r2,r2,8472
   205d8:	300f883a 	mov	r7,r6
   205dc:	280d883a 	mov	r6,r5
   205e0:	200b883a 	mov	r5,r4
   205e4:	11000017 	ldw	r4,0(r2)
   205e8:	00205ec1 	jmpi	205ec <_fseeko_r>

000205ec <_fseeko_r>:
   205ec:	deffe804 	addi	sp,sp,-96
   205f0:	dd401415 	stw	r21,80(sp)
   205f4:	dc801115 	stw	r18,68(sp)
   205f8:	dc401015 	stw	r17,64(sp)
   205fc:	dc000f15 	stw	r16,60(sp)
   20600:	dfc01715 	stw	ra,92(sp)
   20604:	ddc01615 	stw	r23,88(sp)
   20608:	dd801515 	stw	r22,84(sp)
   2060c:	dd001315 	stw	r20,76(sp)
   20610:	dcc01215 	stw	r19,72(sp)
   20614:	2023883a 	mov	r17,r4
   20618:	2821883a 	mov	r16,r5
   2061c:	302b883a 	mov	r21,r6
   20620:	3825883a 	mov	r18,r7
   20624:	20000226 	beq	r4,zero,20630 <_fseeko_r+0x44>
   20628:	20800e17 	ldw	r2,56(r4)
   2062c:	10005a26 	beq	r2,zero,20798 <_fseeko_r+0x1ac>
   20630:	8080030b 	ldhu	r2,12(r16)
   20634:	00c04204 	movi	r3,264
   20638:	1080420c 	andi	r2,r2,264
   2063c:	10c05b26 	beq	r2,r3,207ac <_fseeko_r+0x1c0>
   20640:	85000a17 	ldw	r20,40(r16)
   20644:	a000f626 	beq	r20,zero,20a20 <_fseeko_r+0x434>
   20648:	00800044 	movi	r2,1
   2064c:	90803e26 	beq	r18,r2,20748 <_fseeko_r+0x15c>
   20650:	00800084 	movi	r2,2
   20654:	90801026 	beq	r18,r2,20698 <_fseeko_r+0xac>
   20658:	90000f26 	beq	r18,zero,20698 <_fseeko_r+0xac>
   2065c:	00800584 	movi	r2,22
   20660:	88800015 	stw	r2,0(r17)
   20664:	04ffffc4 	movi	r19,-1
   20668:	9805883a 	mov	r2,r19
   2066c:	dfc01717 	ldw	ra,92(sp)
   20670:	ddc01617 	ldw	r23,88(sp)
   20674:	dd801517 	ldw	r22,84(sp)
   20678:	dd401417 	ldw	r21,80(sp)
   2067c:	dd001317 	ldw	r20,76(sp)
   20680:	dcc01217 	ldw	r19,72(sp)
   20684:	dc801117 	ldw	r18,68(sp)
   20688:	dc401017 	ldw	r17,64(sp)
   2068c:	dc000f17 	ldw	r16,60(sp)
   20690:	dec01804 	addi	sp,sp,96
   20694:	f800283a 	ret
   20698:	80800417 	ldw	r2,16(r16)
   2069c:	002f883a 	mov	r23,zero
   206a0:	0027883a 	mov	r19,zero
   206a4:	1000cb26 	beq	r2,zero,209d4 <_fseeko_r+0x3e8>
   206a8:	8080030b 	ldhu	r2,12(r16)
   206ac:	10c2068c 	andi	r3,r2,2074
   206b0:	1800071e 	bne	r3,zero,206d0 <_fseeko_r+0xe4>
   206b4:	10c1000c 	andi	r3,r2,1024
   206b8:	1800451e 	bne	r3,zero,207d0 <_fseeko_r+0x1e4>
   206bc:	00c000b4 	movhi	r3,2
   206c0:	18c68904 	addi	r3,r3,6692
   206c4:	a0c0b726 	beq	r20,r3,209a4 <_fseeko_r+0x3b8>
   206c8:	10820014 	ori	r2,r2,2048
   206cc:	8080030d 	sth	r2,12(r16)
   206d0:	800b883a 	mov	r5,r16
   206d4:	8809883a 	mov	r4,r17
   206d8:	0025b100 	call	25b10 <_fflush_r>
   206dc:	1027883a 	mov	r19,r2
   206e0:	103fe01e 	bne	r2,zero,20664 <__alt_mem_MemoriaImagem1+0xfffc0664>
   206e4:	81400717 	ldw	r5,28(r16)
   206e8:	900f883a 	mov	r7,r18
   206ec:	a80d883a 	mov	r6,r21
   206f0:	8809883a 	mov	r4,r17
   206f4:	a03ee83a 	callr	r20
   206f8:	00ffffc4 	movi	r3,-1
   206fc:	10ffd926 	beq	r2,r3,20664 <__alt_mem_MemoriaImagem1+0xfffc0664>
   20700:	81400c17 	ldw	r5,48(r16)
   20704:	28000526 	beq	r5,zero,2071c <_fseeko_r+0x130>
   20708:	80801004 	addi	r2,r16,64
   2070c:	28800226 	beq	r5,r2,20718 <_fseeko_r+0x12c>
   20710:	8809883a 	mov	r4,r17
   20714:	002611c0 	call	2611c <_free_r>
   20718:	80000c15 	stw	zero,48(r16)
   2071c:	8080030b 	ldhu	r2,12(r16)
   20720:	80c00417 	ldw	r3,16(r16)
   20724:	80000115 	stw	zero,4(r16)
   20728:	10bdf7cc 	andi	r2,r2,63455
   2072c:	80c00015 	stw	r3,0(r16)
   20730:	8080030d 	sth	r2,12(r16)
   20734:	01800204 	movi	r6,8
   20738:	000b883a 	mov	r5,zero
   2073c:	81001704 	addi	r4,r16,92
   20740:	00215800 	call	21580 <memset>
   20744:	003fc806 	br	20668 <__alt_mem_MemoriaImagem1+0xfffc0668>
   20748:	800b883a 	mov	r5,r16
   2074c:	8809883a 	mov	r4,r17
   20750:	0025b100 	call	25b10 <_fflush_r>
   20754:	8080030b 	ldhu	r2,12(r16)
   20758:	10c4000c 	andi	r3,r2,4096
   2075c:	18008726 	beq	r3,zero,2097c <_fseeko_r+0x390>
   20760:	84c01417 	ldw	r19,80(r16)
   20764:	10c0010c 	andi	r3,r2,4
   20768:	1800431e 	bne	r3,zero,20878 <_fseeko_r+0x28c>
   2076c:	1080020c 	andi	r2,r2,8
   20770:	10008026 	beq	r2,zero,20974 <_fseeko_r+0x388>
   20774:	80c00017 	ldw	r3,0(r16)
   20778:	80800417 	ldw	r2,16(r16)
   2077c:	18000226 	beq	r3,zero,20788 <_fseeko_r+0x19c>
   20780:	1887c83a 	sub	r3,r3,r2
   20784:	98e7883a 	add	r19,r19,r3
   20788:	aceb883a 	add	r21,r21,r19
   2078c:	05c00044 	movi	r23,1
   20790:	0025883a 	mov	r18,zero
   20794:	003fc306 	br	206a4 <__alt_mem_MemoriaImagem1+0xfffc06a4>
   20798:	0025efc0 	call	25efc <__sinit>
   2079c:	8080030b 	ldhu	r2,12(r16)
   207a0:	00c04204 	movi	r3,264
   207a4:	1080420c 	andi	r2,r2,264
   207a8:	10ffa51e 	bne	r2,r3,20640 <__alt_mem_MemoriaImagem1+0xfffc0640>
   207ac:	800b883a 	mov	r5,r16
   207b0:	8809883a 	mov	r4,r17
   207b4:	0025b100 	call	25b10 <_fflush_r>
   207b8:	003fa106 	br	20640 <__alt_mem_MemoriaImagem1+0xfffc0640>
   207bc:	8080030b 	ldhu	r2,12(r16)
   207c0:	00c10004 	movi	r3,1024
   207c4:	80c01315 	stw	r3,76(r16)
   207c8:	10c4b03a 	or	r2,r2,r3
   207cc:	8080030d 	sth	r2,12(r16)
   207d0:	9000311e 	bne	r18,zero,20898 <_fseeko_r+0x2ac>
   207d4:	a82d883a 	mov	r22,r21
   207d8:	b800371e 	bne	r23,zero,208b8 <_fseeko_r+0x2cc>
   207dc:	8080030b 	ldhu	r2,12(r16)
   207e0:	1084000c 	andi	r2,r2,4096
   207e4:	10007f26 	beq	r2,zero,209e4 <_fseeko_r+0x3f8>
   207e8:	80801417 	ldw	r2,80(r16)
   207ec:	81800117 	ldw	r6,4(r16)
   207f0:	81400c17 	ldw	r5,48(r16)
   207f4:	11a7c83a 	sub	r19,r2,r6
   207f8:	28008226 	beq	r5,zero,20a04 <_fseeko_r+0x418>
   207fc:	81c00f17 	ldw	r7,60(r16)
   20800:	99e7c83a 	sub	r19,r19,r7
   20804:	81000e17 	ldw	r4,56(r16)
   20808:	80800417 	ldw	r2,16(r16)
   2080c:	99a7883a 	add	r19,r19,r6
   20810:	2087c83a 	sub	r3,r4,r2
   20814:	98e7c83a 	sub	r19,r19,r3
   20818:	38c7883a 	add	r3,r7,r3
   2081c:	b4c02b16 	blt	r22,r19,208cc <_fseeko_r+0x2e0>
   20820:	98c9883a 	add	r4,r19,r3
   20824:	b100292e 	bgeu	r22,r4,208cc <_fseeko_r+0x2e0>
   20828:	b4e7c83a 	sub	r19,r22,r19
   2082c:	14c5883a 	add	r2,r2,r19
   20830:	1ce7c83a 	sub	r19,r3,r19
   20834:	80800015 	stw	r2,0(r16)
   20838:	84c00115 	stw	r19,4(r16)
   2083c:	28000526 	beq	r5,zero,20854 <_fseeko_r+0x268>
   20840:	80801004 	addi	r2,r16,64
   20844:	28800226 	beq	r5,r2,20850 <_fseeko_r+0x264>
   20848:	8809883a 	mov	r4,r17
   2084c:	002611c0 	call	2611c <_free_r>
   20850:	80000c15 	stw	zero,48(r16)
   20854:	8080030b 	ldhu	r2,12(r16)
   20858:	01800204 	movi	r6,8
   2085c:	000b883a 	mov	r5,zero
   20860:	10bff7cc 	andi	r2,r2,65503
   20864:	8080030d 	sth	r2,12(r16)
   20868:	81001704 	addi	r4,r16,92
   2086c:	00215800 	call	21580 <memset>
   20870:	0027883a 	mov	r19,zero
   20874:	003f7c06 	br	20668 <__alt_mem_MemoriaImagem1+0xfffc0668>
   20878:	80c00117 	ldw	r3,4(r16)
   2087c:	80800c17 	ldw	r2,48(r16)
   20880:	98e7c83a 	sub	r19,r19,r3
   20884:	10003b26 	beq	r2,zero,20974 <_fseeko_r+0x388>
   20888:	80c00f17 	ldw	r3,60(r16)
   2088c:	80800417 	ldw	r2,16(r16)
   20890:	98e7c83a 	sub	r19,r19,r3
   20894:	003fbc06 	br	20788 <__alt_mem_MemoriaImagem1+0xfffc0788>
   20898:	8140038f 	ldh	r5,14(r16)
   2089c:	d80d883a 	mov	r6,sp
   208a0:	8809883a 	mov	r4,r17
   208a4:	0020a4c0 	call	20a4c <_fstat_r>
   208a8:	103f891e 	bne	r2,zero,206d0 <__alt_mem_MemoriaImagem1+0xfffc06d0>
   208ac:	dd800417 	ldw	r22,16(sp)
   208b0:	adad883a 	add	r22,r21,r22
   208b4:	b83fc926 	beq	r23,zero,207dc <__alt_mem_MemoriaImagem1+0xfffc07dc>
   208b8:	81400c17 	ldw	r5,48(r16)
   208bc:	81800117 	ldw	r6,4(r16)
   208c0:	28005026 	beq	r5,zero,20a04 <_fseeko_r+0x418>
   208c4:	81c00f17 	ldw	r7,60(r16)
   208c8:	003fce06 	br	20804 <__alt_mem_MemoriaImagem1+0xfffc0804>
   208cc:	84c01317 	ldw	r19,76(r16)
   208d0:	81400717 	ldw	r5,28(r16)
   208d4:	000f883a 	mov	r7,zero
   208d8:	04e7c83a 	sub	r19,zero,r19
   208dc:	9da6703a 	and	r19,r19,r22
   208e0:	980d883a 	mov	r6,r19
   208e4:	8809883a 	mov	r4,r17
   208e8:	a03ee83a 	callr	r20
   208ec:	00ffffc4 	movi	r3,-1
   208f0:	10ff7726 	beq	r2,r3,206d0 <__alt_mem_MemoriaImagem1+0xfffc06d0>
   208f4:	80800417 	ldw	r2,16(r16)
   208f8:	81400c17 	ldw	r5,48(r16)
   208fc:	80000115 	stw	zero,4(r16)
   20900:	80800015 	stw	r2,0(r16)
   20904:	28000526 	beq	r5,zero,2091c <_fseeko_r+0x330>
   20908:	80801004 	addi	r2,r16,64
   2090c:	28800226 	beq	r5,r2,20918 <_fseeko_r+0x32c>
   20910:	8809883a 	mov	r4,r17
   20914:	002611c0 	call	2611c <_free_r>
   20918:	80000c15 	stw	zero,48(r16)
   2091c:	8080030b 	ldhu	r2,12(r16)
   20920:	b4e7c83a 	sub	r19,r22,r19
   20924:	10bff7cc 	andi	r2,r2,65503
   20928:	8080030d 	sth	r2,12(r16)
   2092c:	98000b26 	beq	r19,zero,2095c <_fseeko_r+0x370>
   20930:	800b883a 	mov	r5,r16
   20934:	8809883a 	mov	r4,r17
   20938:	00217240 	call	21724 <__srefill_r>
   2093c:	103f641e 	bne	r2,zero,206d0 <__alt_mem_MemoriaImagem1+0xfffc06d0>
   20940:	80800117 	ldw	r2,4(r16)
   20944:	14ff6236 	bltu	r2,r19,206d0 <__alt_mem_MemoriaImagem1+0xfffc06d0>
   20948:	80c00017 	ldw	r3,0(r16)
   2094c:	14c5c83a 	sub	r2,r2,r19
   20950:	80800115 	stw	r2,4(r16)
   20954:	1ce7883a 	add	r19,r3,r19
   20958:	84c00015 	stw	r19,0(r16)
   2095c:	01800204 	movi	r6,8
   20960:	000b883a 	mov	r5,zero
   20964:	81001704 	addi	r4,r16,92
   20968:	00215800 	call	21580 <memset>
   2096c:	0027883a 	mov	r19,zero
   20970:	003f3d06 	br	20668 <__alt_mem_MemoriaImagem1+0xfffc0668>
   20974:	80800417 	ldw	r2,16(r16)
   20978:	003f8306 	br	20788 <__alt_mem_MemoriaImagem1+0xfffc0788>
   2097c:	81400717 	ldw	r5,28(r16)
   20980:	900f883a 	mov	r7,r18
   20984:	000d883a 	mov	r6,zero
   20988:	8809883a 	mov	r4,r17
   2098c:	a03ee83a 	callr	r20
   20990:	1027883a 	mov	r19,r2
   20994:	00bfffc4 	movi	r2,-1
   20998:	98bf3226 	beq	r19,r2,20664 <__alt_mem_MemoriaImagem1+0xfffc0664>
   2099c:	8080030b 	ldhu	r2,12(r16)
   209a0:	003f7006 	br	20764 <__alt_mem_MemoriaImagem1+0xfffc0764>
   209a4:	8140038f 	ldh	r5,14(r16)
   209a8:	283f4716 	blt	r5,zero,206c8 <__alt_mem_MemoriaImagem1+0xfffc06c8>
   209ac:	d80d883a 	mov	r6,sp
   209b0:	8809883a 	mov	r4,r17
   209b4:	0020a4c0 	call	20a4c <_fstat_r>
   209b8:	1000041e 	bne	r2,zero,209cc <_fseeko_r+0x3e0>
   209bc:	d8800117 	ldw	r2,4(sp)
   209c0:	00e00014 	movui	r3,32768
   209c4:	10bc000c 	andi	r2,r2,61440
   209c8:	10ff7c26 	beq	r2,r3,207bc <__alt_mem_MemoriaImagem1+0xfffc07bc>
   209cc:	8080030b 	ldhu	r2,12(r16)
   209d0:	003f3d06 	br	206c8 <__alt_mem_MemoriaImagem1+0xfffc06c8>
   209d4:	800b883a 	mov	r5,r16
   209d8:	8809883a 	mov	r4,r17
   209dc:	0020bb80 	call	20bb8 <__smakebuf_r>
   209e0:	003f3106 	br	206a8 <__alt_mem_MemoriaImagem1+0xfffc06a8>
   209e4:	81400717 	ldw	r5,28(r16)
   209e8:	01c00044 	movi	r7,1
   209ec:	000d883a 	mov	r6,zero
   209f0:	8809883a 	mov	r4,r17
   209f4:	a03ee83a 	callr	r20
   209f8:	00ffffc4 	movi	r3,-1
   209fc:	10ff7b1e 	bne	r2,r3,207ec <__alt_mem_MemoriaImagem1+0xfffc07ec>
   20a00:	003f3306 	br	206d0 <__alt_mem_MemoriaImagem1+0xfffc06d0>
   20a04:	80c00017 	ldw	r3,0(r16)
   20a08:	80800417 	ldw	r2,16(r16)
   20a0c:	000b883a 	mov	r5,zero
   20a10:	1887c83a 	sub	r3,r3,r2
   20a14:	98e7c83a 	sub	r19,r19,r3
   20a18:	30c7883a 	add	r3,r6,r3
   20a1c:	003f7f06 	br	2081c <__alt_mem_MemoriaImagem1+0xfffc081c>
   20a20:	00800744 	movi	r2,29
   20a24:	88800015 	stw	r2,0(r17)
   20a28:	04ffffc4 	movi	r19,-1
   20a2c:	003f0e06 	br	20668 <__alt_mem_MemoriaImagem1+0xfffc0668>

00020a30 <fseeko>:
   20a30:	008000f4 	movhi	r2,3
   20a34:	10884604 	addi	r2,r2,8472
   20a38:	300f883a 	mov	r7,r6
   20a3c:	280d883a 	mov	r6,r5
   20a40:	200b883a 	mov	r5,r4
   20a44:	11000017 	ldw	r4,0(r2)
   20a48:	00205ec1 	jmpi	205ec <_fseeko_r>

00020a4c <_fstat_r>:
   20a4c:	defffd04 	addi	sp,sp,-12
   20a50:	2805883a 	mov	r2,r5
   20a54:	dc000015 	stw	r16,0(sp)
   20a58:	040000f4 	movhi	r16,3
   20a5c:	dc400115 	stw	r17,4(sp)
   20a60:	840f1804 	addi	r16,r16,15456
   20a64:	2023883a 	mov	r17,r4
   20a68:	300b883a 	mov	r5,r6
   20a6c:	1009883a 	mov	r4,r2
   20a70:	dfc00215 	stw	ra,8(sp)
   20a74:	80000015 	stw	zero,0(r16)
   20a78:	002ddd40 	call	2ddd4 <fstat>
   20a7c:	00ffffc4 	movi	r3,-1
   20a80:	10c00526 	beq	r2,r3,20a98 <_fstat_r+0x4c>
   20a84:	dfc00217 	ldw	ra,8(sp)
   20a88:	dc400117 	ldw	r17,4(sp)
   20a8c:	dc000017 	ldw	r16,0(sp)
   20a90:	dec00304 	addi	sp,sp,12
   20a94:	f800283a 	ret
   20a98:	80c00017 	ldw	r3,0(r16)
   20a9c:	183ff926 	beq	r3,zero,20a84 <__alt_mem_MemoriaImagem1+0xfffc0a84>
   20aa0:	88c00015 	stw	r3,0(r17)
   20aa4:	003ff706 	br	20a84 <__alt_mem_MemoriaImagem1+0xfffc0a84>

00020aa8 <_fwrite_r>:
   20aa8:	defff504 	addi	sp,sp,-44
   20aac:	dc400715 	stw	r17,28(sp)
   20ab0:	d9400315 	stw	r5,12(sp)
   20ab4:	2023883a 	mov	r17,r4
   20ab8:	300b883a 	mov	r5,r6
   20abc:	3809883a 	mov	r4,r7
   20ac0:	dcc00915 	stw	r19,36(sp)
   20ac4:	dc800815 	stw	r18,32(sp)
   20ac8:	dc000615 	stw	r16,24(sp)
   20acc:	dfc00a15 	stw	ra,40(sp)
   20ad0:	3027883a 	mov	r19,r6
   20ad4:	3821883a 	mov	r16,r7
   20ad8:	002b38c0 	call	2b38c <__mulsi3>
   20adc:	1025883a 	mov	r18,r2
   20ae0:	d8800415 	stw	r2,16(sp)
   20ae4:	d8800215 	stw	r2,8(sp)
   20ae8:	d8800304 	addi	r2,sp,12
   20aec:	d8800015 	stw	r2,0(sp)
   20af0:	00800044 	movi	r2,1
   20af4:	d8800115 	stw	r2,4(sp)
   20af8:	d9400b17 	ldw	r5,44(sp)
   20afc:	88000226 	beq	r17,zero,20b08 <_fwrite_r+0x60>
   20b00:	88800e17 	ldw	r2,56(r17)
   20b04:	10001a26 	beq	r2,zero,20b70 <_fwrite_r+0xc8>
   20b08:	2880030b 	ldhu	r2,12(r5)
   20b0c:	10c8000c 	andi	r3,r2,8192
   20b10:	1800061e 	bne	r3,zero,20b2c <_fwrite_r+0x84>
   20b14:	29001917 	ldw	r4,100(r5)
   20b18:	00f7ffc4 	movi	r3,-8193
   20b1c:	10880014 	ori	r2,r2,8192
   20b20:	20c6703a 	and	r3,r4,r3
   20b24:	2880030d 	sth	r2,12(r5)
   20b28:	28c01915 	stw	r3,100(r5)
   20b2c:	d80d883a 	mov	r6,sp
   20b30:	8809883a 	mov	r4,r17
   20b34:	002642c0 	call	2642c <__sfvwrite_r>
   20b38:	10000b26 	beq	r2,zero,20b68 <_fwrite_r+0xc0>
   20b3c:	d9000217 	ldw	r4,8(sp)
   20b40:	980b883a 	mov	r5,r19
   20b44:	9109c83a 	sub	r4,r18,r4
   20b48:	002b2d00 	call	2b2d0 <__udivsi3>
   20b4c:	dfc00a17 	ldw	ra,40(sp)
   20b50:	dcc00917 	ldw	r19,36(sp)
   20b54:	dc800817 	ldw	r18,32(sp)
   20b58:	dc400717 	ldw	r17,28(sp)
   20b5c:	dc000617 	ldw	r16,24(sp)
   20b60:	dec00b04 	addi	sp,sp,44
   20b64:	f800283a 	ret
   20b68:	8005883a 	mov	r2,r16
   20b6c:	003ff706 	br	20b4c <__alt_mem_MemoriaImagem1+0xfffc0b4c>
   20b70:	8809883a 	mov	r4,r17
   20b74:	d9400515 	stw	r5,20(sp)
   20b78:	0025efc0 	call	25efc <__sinit>
   20b7c:	d9400517 	ldw	r5,20(sp)
   20b80:	003fe106 	br	20b08 <__alt_mem_MemoriaImagem1+0xfffc0b08>

00020b84 <fwrite>:
   20b84:	defffe04 	addi	sp,sp,-8
   20b88:	008000f4 	movhi	r2,3
   20b8c:	d9c00015 	stw	r7,0(sp)
   20b90:	10884604 	addi	r2,r2,8472
   20b94:	300f883a 	mov	r7,r6
   20b98:	280d883a 	mov	r6,r5
   20b9c:	200b883a 	mov	r5,r4
   20ba0:	11000017 	ldw	r4,0(r2)
   20ba4:	dfc00115 	stw	ra,4(sp)
   20ba8:	0020aa80 	call	20aa8 <_fwrite_r>
   20bac:	dfc00117 	ldw	ra,4(sp)
   20bb0:	dec00204 	addi	sp,sp,8
   20bb4:	f800283a 	ret

00020bb8 <__smakebuf_r>:
   20bb8:	2880030b 	ldhu	r2,12(r5)
   20bbc:	10c0008c 	andi	r3,r2,2
   20bc0:	1800411e 	bne	r3,zero,20cc8 <__smakebuf_r+0x110>
   20bc4:	deffec04 	addi	sp,sp,-80
   20bc8:	dc000f15 	stw	r16,60(sp)
   20bcc:	2821883a 	mov	r16,r5
   20bd0:	2940038f 	ldh	r5,14(r5)
   20bd4:	dc401015 	stw	r17,64(sp)
   20bd8:	dfc01315 	stw	ra,76(sp)
   20bdc:	dcc01215 	stw	r19,72(sp)
   20be0:	dc801115 	stw	r18,68(sp)
   20be4:	2023883a 	mov	r17,r4
   20be8:	28001c16 	blt	r5,zero,20c5c <__smakebuf_r+0xa4>
   20bec:	d80d883a 	mov	r6,sp
   20bf0:	0020a4c0 	call	20a4c <_fstat_r>
   20bf4:	10001816 	blt	r2,zero,20c58 <__smakebuf_r+0xa0>
   20bf8:	d8800117 	ldw	r2,4(sp)
   20bfc:	00e00014 	movui	r3,32768
   20c00:	10bc000c 	andi	r2,r2,61440
   20c04:	14c80020 	cmpeqi	r19,r2,8192
   20c08:	10c03726 	beq	r2,r3,20ce8 <__smakebuf_r+0x130>
   20c0c:	80c0030b 	ldhu	r3,12(r16)
   20c10:	18c20014 	ori	r3,r3,2048
   20c14:	80c0030d 	sth	r3,12(r16)
   20c18:	00c80004 	movi	r3,8192
   20c1c:	10c0521e 	bne	r2,r3,20d68 <__smakebuf_r+0x1b0>
   20c20:	8140038f 	ldh	r5,14(r16)
   20c24:	8809883a 	mov	r4,r17
   20c28:	0026a7c0 	call	26a7c <_isatty_r>
   20c2c:	10004c26 	beq	r2,zero,20d60 <__smakebuf_r+0x1a8>
   20c30:	8080030b 	ldhu	r2,12(r16)
   20c34:	80c010c4 	addi	r3,r16,67
   20c38:	80c00015 	stw	r3,0(r16)
   20c3c:	10800054 	ori	r2,r2,1
   20c40:	8080030d 	sth	r2,12(r16)
   20c44:	00800044 	movi	r2,1
   20c48:	80c00415 	stw	r3,16(r16)
   20c4c:	80800515 	stw	r2,20(r16)
   20c50:	04810004 	movi	r18,1024
   20c54:	00000706 	br	20c74 <__smakebuf_r+0xbc>
   20c58:	8080030b 	ldhu	r2,12(r16)
   20c5c:	10c0200c 	andi	r3,r2,128
   20c60:	18001f1e 	bne	r3,zero,20ce0 <__smakebuf_r+0x128>
   20c64:	04810004 	movi	r18,1024
   20c68:	10820014 	ori	r2,r2,2048
   20c6c:	8080030d 	sth	r2,12(r16)
   20c70:	0027883a 	mov	r19,zero
   20c74:	900b883a 	mov	r5,r18
   20c78:	8809883a 	mov	r4,r17
   20c7c:	0020d740 	call	20d74 <_malloc_r>
   20c80:	10002c26 	beq	r2,zero,20d34 <__smakebuf_r+0x17c>
   20c84:	80c0030b 	ldhu	r3,12(r16)
   20c88:	010000b4 	movhi	r4,2
   20c8c:	2116e904 	addi	r4,r4,23460
   20c90:	89000f15 	stw	r4,60(r17)
   20c94:	18c02014 	ori	r3,r3,128
   20c98:	80c0030d 	sth	r3,12(r16)
   20c9c:	80800015 	stw	r2,0(r16)
   20ca0:	80800415 	stw	r2,16(r16)
   20ca4:	84800515 	stw	r18,20(r16)
   20ca8:	98001a1e 	bne	r19,zero,20d14 <__smakebuf_r+0x15c>
   20cac:	dfc01317 	ldw	ra,76(sp)
   20cb0:	dcc01217 	ldw	r19,72(sp)
   20cb4:	dc801117 	ldw	r18,68(sp)
   20cb8:	dc401017 	ldw	r17,64(sp)
   20cbc:	dc000f17 	ldw	r16,60(sp)
   20cc0:	dec01404 	addi	sp,sp,80
   20cc4:	f800283a 	ret
   20cc8:	288010c4 	addi	r2,r5,67
   20ccc:	28800015 	stw	r2,0(r5)
   20cd0:	28800415 	stw	r2,16(r5)
   20cd4:	00800044 	movi	r2,1
   20cd8:	28800515 	stw	r2,20(r5)
   20cdc:	f800283a 	ret
   20ce0:	04801004 	movi	r18,64
   20ce4:	003fe006 	br	20c68 <__alt_mem_MemoriaImagem1+0xfffc0c68>
   20ce8:	81000a17 	ldw	r4,40(r16)
   20cec:	00c000b4 	movhi	r3,2
   20cf0:	18c68904 	addi	r3,r3,6692
   20cf4:	20ffc51e 	bne	r4,r3,20c0c <__alt_mem_MemoriaImagem1+0xfffc0c0c>
   20cf8:	8080030b 	ldhu	r2,12(r16)
   20cfc:	04810004 	movi	r18,1024
   20d00:	84801315 	stw	r18,76(r16)
   20d04:	1484b03a 	or	r2,r2,r18
   20d08:	8080030d 	sth	r2,12(r16)
   20d0c:	0027883a 	mov	r19,zero
   20d10:	003fd806 	br	20c74 <__alt_mem_MemoriaImagem1+0xfffc0c74>
   20d14:	8140038f 	ldh	r5,14(r16)
   20d18:	8809883a 	mov	r4,r17
   20d1c:	0026a7c0 	call	26a7c <_isatty_r>
   20d20:	103fe226 	beq	r2,zero,20cac <__alt_mem_MemoriaImagem1+0xfffc0cac>
   20d24:	8080030b 	ldhu	r2,12(r16)
   20d28:	10800054 	ori	r2,r2,1
   20d2c:	8080030d 	sth	r2,12(r16)
   20d30:	003fde06 	br	20cac <__alt_mem_MemoriaImagem1+0xfffc0cac>
   20d34:	8080030b 	ldhu	r2,12(r16)
   20d38:	10c0800c 	andi	r3,r2,512
   20d3c:	183fdb1e 	bne	r3,zero,20cac <__alt_mem_MemoriaImagem1+0xfffc0cac>
   20d40:	10800094 	ori	r2,r2,2
   20d44:	80c010c4 	addi	r3,r16,67
   20d48:	8080030d 	sth	r2,12(r16)
   20d4c:	00800044 	movi	r2,1
   20d50:	80c00015 	stw	r3,0(r16)
   20d54:	80c00415 	stw	r3,16(r16)
   20d58:	80800515 	stw	r2,20(r16)
   20d5c:	003fd306 	br	20cac <__alt_mem_MemoriaImagem1+0xfffc0cac>
   20d60:	04810004 	movi	r18,1024
   20d64:	003fc306 	br	20c74 <__alt_mem_MemoriaImagem1+0xfffc0c74>
   20d68:	0027883a 	mov	r19,zero
   20d6c:	04810004 	movi	r18,1024
   20d70:	003fc006 	br	20c74 <__alt_mem_MemoriaImagem1+0xfffc0c74>

00020d74 <_malloc_r>:
   20d74:	defff504 	addi	sp,sp,-44
   20d78:	dc800315 	stw	r18,12(sp)
   20d7c:	dfc00a15 	stw	ra,40(sp)
   20d80:	df000915 	stw	fp,36(sp)
   20d84:	ddc00815 	stw	r23,32(sp)
   20d88:	dd800715 	stw	r22,28(sp)
   20d8c:	dd400615 	stw	r21,24(sp)
   20d90:	dd000515 	stw	r20,20(sp)
   20d94:	dcc00415 	stw	r19,16(sp)
   20d98:	dc400215 	stw	r17,8(sp)
   20d9c:	dc000115 	stw	r16,4(sp)
   20da0:	288002c4 	addi	r2,r5,11
   20da4:	00c00584 	movi	r3,22
   20da8:	2025883a 	mov	r18,r4
   20dac:	18807f2e 	bgeu	r3,r2,20fac <_malloc_r+0x238>
   20db0:	047ffe04 	movi	r17,-8
   20db4:	1462703a 	and	r17,r2,r17
   20db8:	8800a316 	blt	r17,zero,21048 <_malloc_r+0x2d4>
   20dbc:	8940a236 	bltu	r17,r5,21048 <_malloc_r+0x2d4>
   20dc0:	002e1f40 	call	2e1f4 <__malloc_lock>
   20dc4:	00807dc4 	movi	r2,503
   20dc8:	1441e92e 	bgeu	r2,r17,21570 <_malloc_r+0x7fc>
   20dcc:	8804d27a 	srli	r2,r17,9
   20dd0:	1000a126 	beq	r2,zero,21058 <_malloc_r+0x2e4>
   20dd4:	00c00104 	movi	r3,4
   20dd8:	18811e36 	bltu	r3,r2,21254 <_malloc_r+0x4e0>
   20ddc:	8804d1ba 	srli	r2,r17,6
   20de0:	12000e44 	addi	r8,r2,57
   20de4:	11c00e04 	addi	r7,r2,56
   20de8:	4209883a 	add	r4,r8,r8
   20dec:	04c000f4 	movhi	r19,3
   20df0:	2109883a 	add	r4,r4,r4
   20df4:	9cc2a104 	addi	r19,r19,2692
   20df8:	2109883a 	add	r4,r4,r4
   20dfc:	9909883a 	add	r4,r19,r4
   20e00:	24000117 	ldw	r16,4(r4)
   20e04:	213ffe04 	addi	r4,r4,-8
   20e08:	24009726 	beq	r4,r16,21068 <_malloc_r+0x2f4>
   20e0c:	80800117 	ldw	r2,4(r16)
   20e10:	01bfff04 	movi	r6,-4
   20e14:	014003c4 	movi	r5,15
   20e18:	1184703a 	and	r2,r2,r6
   20e1c:	1447c83a 	sub	r3,r2,r17
   20e20:	28c00716 	blt	r5,r3,20e40 <_malloc_r+0xcc>
   20e24:	1800920e 	bge	r3,zero,21070 <_malloc_r+0x2fc>
   20e28:	84000317 	ldw	r16,12(r16)
   20e2c:	24008e26 	beq	r4,r16,21068 <_malloc_r+0x2f4>
   20e30:	80800117 	ldw	r2,4(r16)
   20e34:	1184703a 	and	r2,r2,r6
   20e38:	1447c83a 	sub	r3,r2,r17
   20e3c:	28fff90e 	bge	r5,r3,20e24 <__alt_mem_MemoriaImagem1+0xfffc0e24>
   20e40:	3809883a 	mov	r4,r7
   20e44:	018000f4 	movhi	r6,3
   20e48:	9c000417 	ldw	r16,16(r19)
   20e4c:	3182a104 	addi	r6,r6,2692
   20e50:	32000204 	addi	r8,r6,8
   20e54:	82013426 	beq	r16,r8,21328 <_malloc_r+0x5b4>
   20e58:	80c00117 	ldw	r3,4(r16)
   20e5c:	00bfff04 	movi	r2,-4
   20e60:	188e703a 	and	r7,r3,r2
   20e64:	3c45c83a 	sub	r2,r7,r17
   20e68:	00c003c4 	movi	r3,15
   20e6c:	18811f16 	blt	r3,r2,212ec <_malloc_r+0x578>
   20e70:	32000515 	stw	r8,20(r6)
   20e74:	32000415 	stw	r8,16(r6)
   20e78:	10007f0e 	bge	r2,zero,21078 <_malloc_r+0x304>
   20e7c:	00807fc4 	movi	r2,511
   20e80:	11c0fd36 	bltu	r2,r7,21278 <_malloc_r+0x504>
   20e84:	3806d0fa 	srli	r3,r7,3
   20e88:	01c00044 	movi	r7,1
   20e8c:	30800117 	ldw	r2,4(r6)
   20e90:	19400044 	addi	r5,r3,1
   20e94:	294b883a 	add	r5,r5,r5
   20e98:	1807d0ba 	srai	r3,r3,2
   20e9c:	294b883a 	add	r5,r5,r5
   20ea0:	294b883a 	add	r5,r5,r5
   20ea4:	298b883a 	add	r5,r5,r6
   20ea8:	38c6983a 	sll	r3,r7,r3
   20eac:	29c00017 	ldw	r7,0(r5)
   20eb0:	2a7ffe04 	addi	r9,r5,-8
   20eb4:	1886b03a 	or	r3,r3,r2
   20eb8:	82400315 	stw	r9,12(r16)
   20ebc:	81c00215 	stw	r7,8(r16)
   20ec0:	30c00115 	stw	r3,4(r6)
   20ec4:	2c000015 	stw	r16,0(r5)
   20ec8:	3c000315 	stw	r16,12(r7)
   20ecc:	2005d0ba 	srai	r2,r4,2
   20ed0:	01400044 	movi	r5,1
   20ed4:	288a983a 	sll	r5,r5,r2
   20ed8:	19406f36 	bltu	r3,r5,21098 <_malloc_r+0x324>
   20edc:	28c4703a 	and	r2,r5,r3
   20ee0:	10000a1e 	bne	r2,zero,20f0c <_malloc_r+0x198>
   20ee4:	00bfff04 	movi	r2,-4
   20ee8:	294b883a 	add	r5,r5,r5
   20eec:	2088703a 	and	r4,r4,r2
   20ef0:	28c4703a 	and	r2,r5,r3
   20ef4:	21000104 	addi	r4,r4,4
   20ef8:	1000041e 	bne	r2,zero,20f0c <_malloc_r+0x198>
   20efc:	294b883a 	add	r5,r5,r5
   20f00:	28c4703a 	and	r2,r5,r3
   20f04:	21000104 	addi	r4,r4,4
   20f08:	103ffc26 	beq	r2,zero,20efc <__alt_mem_MemoriaImagem1+0xfffc0efc>
   20f0c:	02bfff04 	movi	r10,-4
   20f10:	024003c4 	movi	r9,15
   20f14:	21800044 	addi	r6,r4,1
   20f18:	318d883a 	add	r6,r6,r6
   20f1c:	318d883a 	add	r6,r6,r6
   20f20:	318d883a 	add	r6,r6,r6
   20f24:	998d883a 	add	r6,r19,r6
   20f28:	333ffe04 	addi	r12,r6,-8
   20f2c:	2017883a 	mov	r11,r4
   20f30:	31800104 	addi	r6,r6,4
   20f34:	34000017 	ldw	r16,0(r6)
   20f38:	31fffd04 	addi	r7,r6,-12
   20f3c:	81c0041e 	bne	r16,r7,20f50 <_malloc_r+0x1dc>
   20f40:	0000fb06 	br	21330 <_malloc_r+0x5bc>
   20f44:	1801030e 	bge	r3,zero,21354 <_malloc_r+0x5e0>
   20f48:	84000317 	ldw	r16,12(r16)
   20f4c:	81c0f826 	beq	r16,r7,21330 <_malloc_r+0x5bc>
   20f50:	80800117 	ldw	r2,4(r16)
   20f54:	1284703a 	and	r2,r2,r10
   20f58:	1447c83a 	sub	r3,r2,r17
   20f5c:	48fff90e 	bge	r9,r3,20f44 <__alt_mem_MemoriaImagem1+0xfffc0f44>
   20f60:	80800317 	ldw	r2,12(r16)
   20f64:	81000217 	ldw	r4,8(r16)
   20f68:	89400054 	ori	r5,r17,1
   20f6c:	81400115 	stw	r5,4(r16)
   20f70:	20800315 	stw	r2,12(r4)
   20f74:	11000215 	stw	r4,8(r2)
   20f78:	8463883a 	add	r17,r16,r17
   20f7c:	9c400515 	stw	r17,20(r19)
   20f80:	9c400415 	stw	r17,16(r19)
   20f84:	18800054 	ori	r2,r3,1
   20f88:	88800115 	stw	r2,4(r17)
   20f8c:	8a000315 	stw	r8,12(r17)
   20f90:	8a000215 	stw	r8,8(r17)
   20f94:	88e3883a 	add	r17,r17,r3
   20f98:	88c00015 	stw	r3,0(r17)
   20f9c:	9009883a 	mov	r4,r18
   20fa0:	002e2180 	call	2e218 <__malloc_unlock>
   20fa4:	80800204 	addi	r2,r16,8
   20fa8:	00001b06 	br	21018 <_malloc_r+0x2a4>
   20fac:	04400404 	movi	r17,16
   20fb0:	89402536 	bltu	r17,r5,21048 <_malloc_r+0x2d4>
   20fb4:	002e1f40 	call	2e1f4 <__malloc_lock>
   20fb8:	00800184 	movi	r2,6
   20fbc:	01000084 	movi	r4,2
   20fc0:	04c000f4 	movhi	r19,3
   20fc4:	1085883a 	add	r2,r2,r2
   20fc8:	9cc2a104 	addi	r19,r19,2692
   20fcc:	1085883a 	add	r2,r2,r2
   20fd0:	9885883a 	add	r2,r19,r2
   20fd4:	14000117 	ldw	r16,4(r2)
   20fd8:	10fffe04 	addi	r3,r2,-8
   20fdc:	80c0d926 	beq	r16,r3,21344 <_malloc_r+0x5d0>
   20fe0:	80c00117 	ldw	r3,4(r16)
   20fe4:	81000317 	ldw	r4,12(r16)
   20fe8:	00bfff04 	movi	r2,-4
   20fec:	1884703a 	and	r2,r3,r2
   20ff0:	81400217 	ldw	r5,8(r16)
   20ff4:	8085883a 	add	r2,r16,r2
   20ff8:	10c00117 	ldw	r3,4(r2)
   20ffc:	29000315 	stw	r4,12(r5)
   21000:	21400215 	stw	r5,8(r4)
   21004:	18c00054 	ori	r3,r3,1
   21008:	10c00115 	stw	r3,4(r2)
   2100c:	9009883a 	mov	r4,r18
   21010:	002e2180 	call	2e218 <__malloc_unlock>
   21014:	80800204 	addi	r2,r16,8
   21018:	dfc00a17 	ldw	ra,40(sp)
   2101c:	df000917 	ldw	fp,36(sp)
   21020:	ddc00817 	ldw	r23,32(sp)
   21024:	dd800717 	ldw	r22,28(sp)
   21028:	dd400617 	ldw	r21,24(sp)
   2102c:	dd000517 	ldw	r20,20(sp)
   21030:	dcc00417 	ldw	r19,16(sp)
   21034:	dc800317 	ldw	r18,12(sp)
   21038:	dc400217 	ldw	r17,8(sp)
   2103c:	dc000117 	ldw	r16,4(sp)
   21040:	dec00b04 	addi	sp,sp,44
   21044:	f800283a 	ret
   21048:	00800304 	movi	r2,12
   2104c:	90800015 	stw	r2,0(r18)
   21050:	0005883a 	mov	r2,zero
   21054:	003ff006 	br	21018 <__alt_mem_MemoriaImagem1+0xfffc1018>
   21058:	01002004 	movi	r4,128
   2105c:	02001004 	movi	r8,64
   21060:	01c00fc4 	movi	r7,63
   21064:	003f6106 	br	20dec <__alt_mem_MemoriaImagem1+0xfffc0dec>
   21068:	4009883a 	mov	r4,r8
   2106c:	003f7506 	br	20e44 <__alt_mem_MemoriaImagem1+0xfffc0e44>
   21070:	81000317 	ldw	r4,12(r16)
   21074:	003fde06 	br	20ff0 <__alt_mem_MemoriaImagem1+0xfffc0ff0>
   21078:	81c5883a 	add	r2,r16,r7
   2107c:	11400117 	ldw	r5,4(r2)
   21080:	9009883a 	mov	r4,r18
   21084:	29400054 	ori	r5,r5,1
   21088:	11400115 	stw	r5,4(r2)
   2108c:	002e2180 	call	2e218 <__malloc_unlock>
   21090:	80800204 	addi	r2,r16,8
   21094:	003fe006 	br	21018 <__alt_mem_MemoriaImagem1+0xfffc1018>
   21098:	9c000217 	ldw	r16,8(r19)
   2109c:	00bfff04 	movi	r2,-4
   210a0:	85800117 	ldw	r22,4(r16)
   210a4:	b0ac703a 	and	r22,r22,r2
   210a8:	b4400336 	bltu	r22,r17,210b8 <_malloc_r+0x344>
   210ac:	b445c83a 	sub	r2,r22,r17
   210b0:	00c003c4 	movi	r3,15
   210b4:	18805d16 	blt	r3,r2,2122c <_malloc_r+0x4b8>
   210b8:	05c000f4 	movhi	r23,3
   210bc:	008000f4 	movhi	r2,3
   210c0:	108f1b04 	addi	r2,r2,15468
   210c4:	bdc84704 	addi	r23,r23,8476
   210c8:	15400017 	ldw	r21,0(r2)
   210cc:	b8c00017 	ldw	r3,0(r23)
   210d0:	00bfffc4 	movi	r2,-1
   210d4:	858d883a 	add	r6,r16,r22
   210d8:	8d6b883a 	add	r21,r17,r21
   210dc:	1880ea26 	beq	r3,r2,21488 <_malloc_r+0x714>
   210e0:	ad4403c4 	addi	r21,r21,4111
   210e4:	00bc0004 	movi	r2,-4096
   210e8:	a8aa703a 	and	r21,r21,r2
   210ec:	a80b883a 	mov	r5,r21
   210f0:	9009883a 	mov	r4,r18
   210f4:	d9800015 	stw	r6,0(sp)
   210f8:	00218f80 	call	218f8 <_sbrk_r>
   210fc:	1029883a 	mov	r20,r2
   21100:	00bfffc4 	movi	r2,-1
   21104:	d9800017 	ldw	r6,0(sp)
   21108:	a080e826 	beq	r20,r2,214ac <_malloc_r+0x738>
   2110c:	a180a636 	bltu	r20,r6,213a8 <_malloc_r+0x634>
   21110:	070000f4 	movhi	fp,3
   21114:	e70f2604 	addi	fp,fp,15512
   21118:	e0800017 	ldw	r2,0(fp)
   2111c:	a887883a 	add	r3,r21,r2
   21120:	e0c00015 	stw	r3,0(fp)
   21124:	3500e626 	beq	r6,r20,214c0 <_malloc_r+0x74c>
   21128:	b9000017 	ldw	r4,0(r23)
   2112c:	00bfffc4 	movi	r2,-1
   21130:	2080ee26 	beq	r4,r2,214ec <_malloc_r+0x778>
   21134:	a185c83a 	sub	r2,r20,r6
   21138:	10c5883a 	add	r2,r2,r3
   2113c:	e0800015 	stw	r2,0(fp)
   21140:	a0c001cc 	andi	r3,r20,7
   21144:	1800bc26 	beq	r3,zero,21438 <_malloc_r+0x6c4>
   21148:	a0e9c83a 	sub	r20,r20,r3
   2114c:	00840204 	movi	r2,4104
   21150:	a5000204 	addi	r20,r20,8
   21154:	10c7c83a 	sub	r3,r2,r3
   21158:	a545883a 	add	r2,r20,r21
   2115c:	1083ffcc 	andi	r2,r2,4095
   21160:	18abc83a 	sub	r21,r3,r2
   21164:	a80b883a 	mov	r5,r21
   21168:	9009883a 	mov	r4,r18
   2116c:	00218f80 	call	218f8 <_sbrk_r>
   21170:	00ffffc4 	movi	r3,-1
   21174:	10c0e126 	beq	r2,r3,214fc <_malloc_r+0x788>
   21178:	1505c83a 	sub	r2,r2,r20
   2117c:	1545883a 	add	r2,r2,r21
   21180:	10800054 	ori	r2,r2,1
   21184:	e0c00017 	ldw	r3,0(fp)
   21188:	9d000215 	stw	r20,8(r19)
   2118c:	a0800115 	stw	r2,4(r20)
   21190:	a8c7883a 	add	r3,r21,r3
   21194:	e0c00015 	stw	r3,0(fp)
   21198:	84c00e26 	beq	r16,r19,211d4 <_malloc_r+0x460>
   2119c:	018003c4 	movi	r6,15
   211a0:	3580a72e 	bgeu	r6,r22,21440 <_malloc_r+0x6cc>
   211a4:	81400117 	ldw	r5,4(r16)
   211a8:	013ffe04 	movi	r4,-8
   211ac:	b0bffd04 	addi	r2,r22,-12
   211b0:	1104703a 	and	r2,r2,r4
   211b4:	2900004c 	andi	r4,r5,1
   211b8:	2088b03a 	or	r4,r4,r2
   211bc:	81000115 	stw	r4,4(r16)
   211c0:	01400144 	movi	r5,5
   211c4:	8089883a 	add	r4,r16,r2
   211c8:	21400115 	stw	r5,4(r4)
   211cc:	21400215 	stw	r5,8(r4)
   211d0:	3080cd36 	bltu	r6,r2,21508 <_malloc_r+0x794>
   211d4:	008000f4 	movhi	r2,3
   211d8:	108f1a04 	addi	r2,r2,15464
   211dc:	11000017 	ldw	r4,0(r2)
   211e0:	20c0012e 	bgeu	r4,r3,211e8 <_malloc_r+0x474>
   211e4:	10c00015 	stw	r3,0(r2)
   211e8:	008000f4 	movhi	r2,3
   211ec:	108f1904 	addi	r2,r2,15460
   211f0:	11000017 	ldw	r4,0(r2)
   211f4:	9c000217 	ldw	r16,8(r19)
   211f8:	20c0012e 	bgeu	r4,r3,21200 <_malloc_r+0x48c>
   211fc:	10c00015 	stw	r3,0(r2)
   21200:	80c00117 	ldw	r3,4(r16)
   21204:	00bfff04 	movi	r2,-4
   21208:	1886703a 	and	r3,r3,r2
   2120c:	1c45c83a 	sub	r2,r3,r17
   21210:	1c400236 	bltu	r3,r17,2121c <_malloc_r+0x4a8>
   21214:	00c003c4 	movi	r3,15
   21218:	18800416 	blt	r3,r2,2122c <_malloc_r+0x4b8>
   2121c:	9009883a 	mov	r4,r18
   21220:	002e2180 	call	2e218 <__malloc_unlock>
   21224:	0005883a 	mov	r2,zero
   21228:	003f7b06 	br	21018 <__alt_mem_MemoriaImagem1+0xfffc1018>
   2122c:	88c00054 	ori	r3,r17,1
   21230:	80c00115 	stw	r3,4(r16)
   21234:	8463883a 	add	r17,r16,r17
   21238:	10800054 	ori	r2,r2,1
   2123c:	9c400215 	stw	r17,8(r19)
   21240:	88800115 	stw	r2,4(r17)
   21244:	9009883a 	mov	r4,r18
   21248:	002e2180 	call	2e218 <__malloc_unlock>
   2124c:	80800204 	addi	r2,r16,8
   21250:	003f7106 	br	21018 <__alt_mem_MemoriaImagem1+0xfffc1018>
   21254:	00c00504 	movi	r3,20
   21258:	18804a2e 	bgeu	r3,r2,21384 <_malloc_r+0x610>
   2125c:	00c01504 	movi	r3,84
   21260:	18806e36 	bltu	r3,r2,2141c <_malloc_r+0x6a8>
   21264:	8804d33a 	srli	r2,r17,12
   21268:	12001bc4 	addi	r8,r2,111
   2126c:	11c01b84 	addi	r7,r2,110
   21270:	4209883a 	add	r4,r8,r8
   21274:	003edd06 	br	20dec <__alt_mem_MemoriaImagem1+0xfffc0dec>
   21278:	3804d27a 	srli	r2,r7,9
   2127c:	00c00104 	movi	r3,4
   21280:	1880442e 	bgeu	r3,r2,21394 <_malloc_r+0x620>
   21284:	00c00504 	movi	r3,20
   21288:	18808136 	bltu	r3,r2,21490 <_malloc_r+0x71c>
   2128c:	11401704 	addi	r5,r2,92
   21290:	10c016c4 	addi	r3,r2,91
   21294:	294b883a 	add	r5,r5,r5
   21298:	294b883a 	add	r5,r5,r5
   2129c:	294b883a 	add	r5,r5,r5
   212a0:	994b883a 	add	r5,r19,r5
   212a4:	28800017 	ldw	r2,0(r5)
   212a8:	018000f4 	movhi	r6,3
   212ac:	297ffe04 	addi	r5,r5,-8
   212b0:	3182a104 	addi	r6,r6,2692
   212b4:	28806526 	beq	r5,r2,2144c <_malloc_r+0x6d8>
   212b8:	01bfff04 	movi	r6,-4
   212bc:	10c00117 	ldw	r3,4(r2)
   212c0:	1986703a 	and	r3,r3,r6
   212c4:	38c0022e 	bgeu	r7,r3,212d0 <_malloc_r+0x55c>
   212c8:	10800217 	ldw	r2,8(r2)
   212cc:	28bffb1e 	bne	r5,r2,212bc <__alt_mem_MemoriaImagem1+0xfffc12bc>
   212d0:	11400317 	ldw	r5,12(r2)
   212d4:	98c00117 	ldw	r3,4(r19)
   212d8:	81400315 	stw	r5,12(r16)
   212dc:	80800215 	stw	r2,8(r16)
   212e0:	2c000215 	stw	r16,8(r5)
   212e4:	14000315 	stw	r16,12(r2)
   212e8:	003ef806 	br	20ecc <__alt_mem_MemoriaImagem1+0xfffc0ecc>
   212ec:	88c00054 	ori	r3,r17,1
   212f0:	80c00115 	stw	r3,4(r16)
   212f4:	8463883a 	add	r17,r16,r17
   212f8:	34400515 	stw	r17,20(r6)
   212fc:	34400415 	stw	r17,16(r6)
   21300:	10c00054 	ori	r3,r2,1
   21304:	8a000315 	stw	r8,12(r17)
   21308:	8a000215 	stw	r8,8(r17)
   2130c:	88c00115 	stw	r3,4(r17)
   21310:	88a3883a 	add	r17,r17,r2
   21314:	88800015 	stw	r2,0(r17)
   21318:	9009883a 	mov	r4,r18
   2131c:	002e2180 	call	2e218 <__malloc_unlock>
   21320:	80800204 	addi	r2,r16,8
   21324:	003f3c06 	br	21018 <__alt_mem_MemoriaImagem1+0xfffc1018>
   21328:	30c00117 	ldw	r3,4(r6)
   2132c:	003ee706 	br	20ecc <__alt_mem_MemoriaImagem1+0xfffc0ecc>
   21330:	5ac00044 	addi	r11,r11,1
   21334:	588000cc 	andi	r2,r11,3
   21338:	31800204 	addi	r6,r6,8
   2133c:	103efd1e 	bne	r2,zero,20f34 <__alt_mem_MemoriaImagem1+0xfffc0f34>
   21340:	00002406 	br	213d4 <_malloc_r+0x660>
   21344:	14000317 	ldw	r16,12(r2)
   21348:	143f251e 	bne	r2,r16,20fe0 <__alt_mem_MemoriaImagem1+0xfffc0fe0>
   2134c:	21000084 	addi	r4,r4,2
   21350:	003ebc06 	br	20e44 <__alt_mem_MemoriaImagem1+0xfffc0e44>
   21354:	8085883a 	add	r2,r16,r2
   21358:	10c00117 	ldw	r3,4(r2)
   2135c:	81000317 	ldw	r4,12(r16)
   21360:	81400217 	ldw	r5,8(r16)
   21364:	18c00054 	ori	r3,r3,1
   21368:	10c00115 	stw	r3,4(r2)
   2136c:	29000315 	stw	r4,12(r5)
   21370:	21400215 	stw	r5,8(r4)
   21374:	9009883a 	mov	r4,r18
   21378:	002e2180 	call	2e218 <__malloc_unlock>
   2137c:	80800204 	addi	r2,r16,8
   21380:	003f2506 	br	21018 <__alt_mem_MemoriaImagem1+0xfffc1018>
   21384:	12001704 	addi	r8,r2,92
   21388:	11c016c4 	addi	r7,r2,91
   2138c:	4209883a 	add	r4,r8,r8
   21390:	003e9606 	br	20dec <__alt_mem_MemoriaImagem1+0xfffc0dec>
   21394:	3804d1ba 	srli	r2,r7,6
   21398:	11400e44 	addi	r5,r2,57
   2139c:	10c00e04 	addi	r3,r2,56
   213a0:	294b883a 	add	r5,r5,r5
   213a4:	003fbc06 	br	21298 <__alt_mem_MemoriaImagem1+0xfffc1298>
   213a8:	84ff5926 	beq	r16,r19,21110 <__alt_mem_MemoriaImagem1+0xfffc1110>
   213ac:	008000f4 	movhi	r2,3
   213b0:	1082a104 	addi	r2,r2,2692
   213b4:	14000217 	ldw	r16,8(r2)
   213b8:	00bfff04 	movi	r2,-4
   213bc:	80c00117 	ldw	r3,4(r16)
   213c0:	1886703a 	and	r3,r3,r2
   213c4:	003f9106 	br	2120c <__alt_mem_MemoriaImagem1+0xfffc120c>
   213c8:	60800217 	ldw	r2,8(r12)
   213cc:	213fffc4 	addi	r4,r4,-1
   213d0:	1300651e 	bne	r2,r12,21568 <_malloc_r+0x7f4>
   213d4:	208000cc 	andi	r2,r4,3
   213d8:	633ffe04 	addi	r12,r12,-8
   213dc:	103ffa1e 	bne	r2,zero,213c8 <__alt_mem_MemoriaImagem1+0xfffc13c8>
   213e0:	98800117 	ldw	r2,4(r19)
   213e4:	0146303a 	nor	r3,zero,r5
   213e8:	1884703a 	and	r2,r3,r2
   213ec:	98800115 	stw	r2,4(r19)
   213f0:	294b883a 	add	r5,r5,r5
   213f4:	117f2836 	bltu	r2,r5,21098 <__alt_mem_MemoriaImagem1+0xfffc1098>
   213f8:	283f2726 	beq	r5,zero,21098 <__alt_mem_MemoriaImagem1+0xfffc1098>
   213fc:	2886703a 	and	r3,r5,r2
   21400:	5809883a 	mov	r4,r11
   21404:	183ec31e 	bne	r3,zero,20f14 <__alt_mem_MemoriaImagem1+0xfffc0f14>
   21408:	294b883a 	add	r5,r5,r5
   2140c:	2886703a 	and	r3,r5,r2
   21410:	21000104 	addi	r4,r4,4
   21414:	183ffc26 	beq	r3,zero,21408 <__alt_mem_MemoriaImagem1+0xfffc1408>
   21418:	003ebe06 	br	20f14 <__alt_mem_MemoriaImagem1+0xfffc0f14>
   2141c:	00c05504 	movi	r3,340
   21420:	18801236 	bltu	r3,r2,2146c <_malloc_r+0x6f8>
   21424:	8804d3fa 	srli	r2,r17,15
   21428:	12001e04 	addi	r8,r2,120
   2142c:	11c01dc4 	addi	r7,r2,119
   21430:	4209883a 	add	r4,r8,r8
   21434:	003e6d06 	br	20dec <__alt_mem_MemoriaImagem1+0xfffc0dec>
   21438:	00c40004 	movi	r3,4096
   2143c:	003f4606 	br	21158 <__alt_mem_MemoriaImagem1+0xfffc1158>
   21440:	00800044 	movi	r2,1
   21444:	a0800115 	stw	r2,4(r20)
   21448:	003f7406 	br	2121c <__alt_mem_MemoriaImagem1+0xfffc121c>
   2144c:	1805d0ba 	srai	r2,r3,2
   21450:	01c00044 	movi	r7,1
   21454:	30c00117 	ldw	r3,4(r6)
   21458:	388e983a 	sll	r7,r7,r2
   2145c:	2805883a 	mov	r2,r5
   21460:	38c6b03a 	or	r3,r7,r3
   21464:	30c00115 	stw	r3,4(r6)
   21468:	003f9b06 	br	212d8 <__alt_mem_MemoriaImagem1+0xfffc12d8>
   2146c:	00c15504 	movi	r3,1364
   21470:	18801a36 	bltu	r3,r2,214dc <_malloc_r+0x768>
   21474:	8804d4ba 	srli	r2,r17,18
   21478:	12001f44 	addi	r8,r2,125
   2147c:	11c01f04 	addi	r7,r2,124
   21480:	4209883a 	add	r4,r8,r8
   21484:	003e5906 	br	20dec <__alt_mem_MemoriaImagem1+0xfffc0dec>
   21488:	ad400404 	addi	r21,r21,16
   2148c:	003f1706 	br	210ec <__alt_mem_MemoriaImagem1+0xfffc10ec>
   21490:	00c01504 	movi	r3,84
   21494:	18802336 	bltu	r3,r2,21524 <_malloc_r+0x7b0>
   21498:	3804d33a 	srli	r2,r7,12
   2149c:	11401bc4 	addi	r5,r2,111
   214a0:	10c01b84 	addi	r3,r2,110
   214a4:	294b883a 	add	r5,r5,r5
   214a8:	003f7b06 	br	21298 <__alt_mem_MemoriaImagem1+0xfffc1298>
   214ac:	9c000217 	ldw	r16,8(r19)
   214b0:	00bfff04 	movi	r2,-4
   214b4:	80c00117 	ldw	r3,4(r16)
   214b8:	1886703a 	and	r3,r3,r2
   214bc:	003f5306 	br	2120c <__alt_mem_MemoriaImagem1+0xfffc120c>
   214c0:	3083ffcc 	andi	r2,r6,4095
   214c4:	103f181e 	bne	r2,zero,21128 <__alt_mem_MemoriaImagem1+0xfffc1128>
   214c8:	99000217 	ldw	r4,8(r19)
   214cc:	b545883a 	add	r2,r22,r21
   214d0:	10800054 	ori	r2,r2,1
   214d4:	20800115 	stw	r2,4(r4)
   214d8:	003f3e06 	br	211d4 <__alt_mem_MemoriaImagem1+0xfffc11d4>
   214dc:	01003f84 	movi	r4,254
   214e0:	02001fc4 	movi	r8,127
   214e4:	01c01f84 	movi	r7,126
   214e8:	003e4006 	br	20dec <__alt_mem_MemoriaImagem1+0xfffc0dec>
   214ec:	008000f4 	movhi	r2,3
   214f0:	10884704 	addi	r2,r2,8476
   214f4:	15000015 	stw	r20,0(r2)
   214f8:	003f1106 	br	21140 <__alt_mem_MemoriaImagem1+0xfffc1140>
   214fc:	00800044 	movi	r2,1
   21500:	002b883a 	mov	r21,zero
   21504:	003f1f06 	br	21184 <__alt_mem_MemoriaImagem1+0xfffc1184>
   21508:	81400204 	addi	r5,r16,8
   2150c:	9009883a 	mov	r4,r18
   21510:	002611c0 	call	2611c <_free_r>
   21514:	008000f4 	movhi	r2,3
   21518:	108f2604 	addi	r2,r2,15512
   2151c:	10c00017 	ldw	r3,0(r2)
   21520:	003f2c06 	br	211d4 <__alt_mem_MemoriaImagem1+0xfffc11d4>
   21524:	00c05504 	movi	r3,340
   21528:	18800536 	bltu	r3,r2,21540 <_malloc_r+0x7cc>
   2152c:	3804d3fa 	srli	r2,r7,15
   21530:	11401e04 	addi	r5,r2,120
   21534:	10c01dc4 	addi	r3,r2,119
   21538:	294b883a 	add	r5,r5,r5
   2153c:	003f5606 	br	21298 <__alt_mem_MemoriaImagem1+0xfffc1298>
   21540:	00c15504 	movi	r3,1364
   21544:	18800536 	bltu	r3,r2,2155c <_malloc_r+0x7e8>
   21548:	3804d4ba 	srli	r2,r7,18
   2154c:	11401f44 	addi	r5,r2,125
   21550:	10c01f04 	addi	r3,r2,124
   21554:	294b883a 	add	r5,r5,r5
   21558:	003f4f06 	br	21298 <__alt_mem_MemoriaImagem1+0xfffc1298>
   2155c:	01403f84 	movi	r5,254
   21560:	00c01f84 	movi	r3,126
   21564:	003f4c06 	br	21298 <__alt_mem_MemoriaImagem1+0xfffc1298>
   21568:	98800117 	ldw	r2,4(r19)
   2156c:	003fa006 	br	213f0 <__alt_mem_MemoriaImagem1+0xfffc13f0>
   21570:	8808d0fa 	srli	r4,r17,3
   21574:	20800044 	addi	r2,r4,1
   21578:	1085883a 	add	r2,r2,r2
   2157c:	003e9006 	br	20fc0 <__alt_mem_MemoriaImagem1+0xfffc0fc0>

00021580 <memset>:
   21580:	20c000cc 	andi	r3,r4,3
   21584:	2005883a 	mov	r2,r4
   21588:	18004426 	beq	r3,zero,2169c <memset+0x11c>
   2158c:	31ffffc4 	addi	r7,r6,-1
   21590:	30004026 	beq	r6,zero,21694 <memset+0x114>
   21594:	2813883a 	mov	r9,r5
   21598:	200d883a 	mov	r6,r4
   2159c:	2007883a 	mov	r3,r4
   215a0:	00000406 	br	215b4 <memset+0x34>
   215a4:	3a3fffc4 	addi	r8,r7,-1
   215a8:	31800044 	addi	r6,r6,1
   215ac:	38003926 	beq	r7,zero,21694 <memset+0x114>
   215b0:	400f883a 	mov	r7,r8
   215b4:	18c00044 	addi	r3,r3,1
   215b8:	32400005 	stb	r9,0(r6)
   215bc:	1a0000cc 	andi	r8,r3,3
   215c0:	403ff81e 	bne	r8,zero,215a4 <__alt_mem_MemoriaImagem1+0xfffc15a4>
   215c4:	010000c4 	movi	r4,3
   215c8:	21c02d2e 	bgeu	r4,r7,21680 <memset+0x100>
   215cc:	29003fcc 	andi	r4,r5,255
   215d0:	200c923a 	slli	r6,r4,8
   215d4:	3108b03a 	or	r4,r6,r4
   215d8:	200c943a 	slli	r6,r4,16
   215dc:	218cb03a 	or	r6,r4,r6
   215e0:	010003c4 	movi	r4,15
   215e4:	21c0182e 	bgeu	r4,r7,21648 <memset+0xc8>
   215e8:	3b3ffc04 	addi	r12,r7,-16
   215ec:	6018d13a 	srli	r12,r12,4
   215f0:	1a000104 	addi	r8,r3,4
   215f4:	1ac00204 	addi	r11,r3,8
   215f8:	6008913a 	slli	r4,r12,4
   215fc:	1a800304 	addi	r10,r3,12
   21600:	1813883a 	mov	r9,r3
   21604:	21000504 	addi	r4,r4,20
   21608:	1909883a 	add	r4,r3,r4
   2160c:	49800015 	stw	r6,0(r9)
   21610:	41800015 	stw	r6,0(r8)
   21614:	59800015 	stw	r6,0(r11)
   21618:	51800015 	stw	r6,0(r10)
   2161c:	42000404 	addi	r8,r8,16
   21620:	4a400404 	addi	r9,r9,16
   21624:	5ac00404 	addi	r11,r11,16
   21628:	52800404 	addi	r10,r10,16
   2162c:	413ff71e 	bne	r8,r4,2160c <__alt_mem_MemoriaImagem1+0xfffc160c>
   21630:	63000044 	addi	r12,r12,1
   21634:	6018913a 	slli	r12,r12,4
   21638:	39c003cc 	andi	r7,r7,15
   2163c:	010000c4 	movi	r4,3
   21640:	1b07883a 	add	r3,r3,r12
   21644:	21c00e2e 	bgeu	r4,r7,21680 <memset+0x100>
   21648:	1813883a 	mov	r9,r3
   2164c:	3811883a 	mov	r8,r7
   21650:	010000c4 	movi	r4,3
   21654:	49800015 	stw	r6,0(r9)
   21658:	423fff04 	addi	r8,r8,-4
   2165c:	4a400104 	addi	r9,r9,4
   21660:	223ffc36 	bltu	r4,r8,21654 <__alt_mem_MemoriaImagem1+0xfffc1654>
   21664:	393fff04 	addi	r4,r7,-4
   21668:	2008d0ba 	srli	r4,r4,2
   2166c:	39c000cc 	andi	r7,r7,3
   21670:	21000044 	addi	r4,r4,1
   21674:	2109883a 	add	r4,r4,r4
   21678:	2109883a 	add	r4,r4,r4
   2167c:	1907883a 	add	r3,r3,r4
   21680:	38000526 	beq	r7,zero,21698 <memset+0x118>
   21684:	19cf883a 	add	r7,r3,r7
   21688:	19400005 	stb	r5,0(r3)
   2168c:	18c00044 	addi	r3,r3,1
   21690:	38fffd1e 	bne	r7,r3,21688 <__alt_mem_MemoriaImagem1+0xfffc1688>
   21694:	f800283a 	ret
   21698:	f800283a 	ret
   2169c:	2007883a 	mov	r3,r4
   216a0:	300f883a 	mov	r7,r6
   216a4:	003fc706 	br	215c4 <__alt_mem_MemoriaImagem1+0xfffc15c4>

000216a8 <_open_r>:
   216a8:	defffd04 	addi	sp,sp,-12
   216ac:	2805883a 	mov	r2,r5
   216b0:	dc000015 	stw	r16,0(sp)
   216b4:	040000f4 	movhi	r16,3
   216b8:	dc400115 	stw	r17,4(sp)
   216bc:	300b883a 	mov	r5,r6
   216c0:	840f1804 	addi	r16,r16,15456
   216c4:	2023883a 	mov	r17,r4
   216c8:	380d883a 	mov	r6,r7
   216cc:	1009883a 	mov	r4,r2
   216d0:	dfc00215 	stw	ra,8(sp)
   216d4:	80000015 	stw	zero,0(r16)
   216d8:	002e3640 	call	2e364 <open>
   216dc:	00ffffc4 	movi	r3,-1
   216e0:	10c00526 	beq	r2,r3,216f8 <_open_r+0x50>
   216e4:	dfc00217 	ldw	ra,8(sp)
   216e8:	dc400117 	ldw	r17,4(sp)
   216ec:	dc000017 	ldw	r16,0(sp)
   216f0:	dec00304 	addi	sp,sp,12
   216f4:	f800283a 	ret
   216f8:	80c00017 	ldw	r3,0(r16)
   216fc:	183ff926 	beq	r3,zero,216e4 <__alt_mem_MemoriaImagem1+0xfffc16e4>
   21700:	88c00015 	stw	r3,0(r17)
   21704:	003ff706 	br	216e4 <__alt_mem_MemoriaImagem1+0xfffc16e4>

00021708 <lflush>:
   21708:	2080030b 	ldhu	r2,12(r4)
   2170c:	00c00244 	movi	r3,9
   21710:	1080024c 	andi	r2,r2,9
   21714:	10c00226 	beq	r2,r3,21720 <lflush+0x18>
   21718:	0005883a 	mov	r2,zero
   2171c:	f800283a 	ret
   21720:	0025b6c1 	jmpi	25b6c <fflush>

00021724 <__srefill_r>:
   21724:	defffc04 	addi	sp,sp,-16
   21728:	dc400115 	stw	r17,4(sp)
   2172c:	dc000015 	stw	r16,0(sp)
   21730:	dfc00315 	stw	ra,12(sp)
   21734:	dc800215 	stw	r18,8(sp)
   21738:	2023883a 	mov	r17,r4
   2173c:	2821883a 	mov	r16,r5
   21740:	20000226 	beq	r4,zero,2174c <__srefill_r+0x28>
   21744:	20800e17 	ldw	r2,56(r4)
   21748:	10003c26 	beq	r2,zero,2183c <__srefill_r+0x118>
   2174c:	80c0030b 	ldhu	r3,12(r16)
   21750:	1908000c 	andi	r4,r3,8192
   21754:	1805883a 	mov	r2,r3
   21758:	2000071e 	bne	r4,zero,21778 <__srefill_r+0x54>
   2175c:	81001917 	ldw	r4,100(r16)
   21760:	18880014 	ori	r2,r3,8192
   21764:	00f7ffc4 	movi	r3,-8193
   21768:	20c8703a 	and	r4,r4,r3
   2176c:	8080030d 	sth	r2,12(r16)
   21770:	1007883a 	mov	r3,r2
   21774:	81001915 	stw	r4,100(r16)
   21778:	80000115 	stw	zero,4(r16)
   2177c:	1100080c 	andi	r4,r2,32
   21780:	2000571e 	bne	r4,zero,218e0 <__srefill_r+0x1bc>
   21784:	1100010c 	andi	r4,r2,4
   21788:	20001f26 	beq	r4,zero,21808 <__srefill_r+0xe4>
   2178c:	81400c17 	ldw	r5,48(r16)
   21790:	28000826 	beq	r5,zero,217b4 <__srefill_r+0x90>
   21794:	80801004 	addi	r2,r16,64
   21798:	28800226 	beq	r5,r2,217a4 <__srefill_r+0x80>
   2179c:	8809883a 	mov	r4,r17
   217a0:	002611c0 	call	2611c <_free_r>
   217a4:	80800f17 	ldw	r2,60(r16)
   217a8:	80000c15 	stw	zero,48(r16)
   217ac:	80800115 	stw	r2,4(r16)
   217b0:	1000391e 	bne	r2,zero,21898 <__srefill_r+0x174>
   217b4:	80800417 	ldw	r2,16(r16)
   217b8:	10004b26 	beq	r2,zero,218e8 <__srefill_r+0x1c4>
   217bc:	8480030b 	ldhu	r18,12(r16)
   217c0:	908000cc 	andi	r2,r18,3
   217c4:	10001f1e 	bne	r2,zero,21844 <__srefill_r+0x120>
   217c8:	81800417 	ldw	r6,16(r16)
   217cc:	80800817 	ldw	r2,32(r16)
   217d0:	81c00517 	ldw	r7,20(r16)
   217d4:	81400717 	ldw	r5,28(r16)
   217d8:	81800015 	stw	r6,0(r16)
   217dc:	8809883a 	mov	r4,r17
   217e0:	103ee83a 	callr	r2
   217e4:	80800115 	stw	r2,4(r16)
   217e8:	00800e0e 	bge	zero,r2,21824 <__srefill_r+0x100>
   217ec:	0005883a 	mov	r2,zero
   217f0:	dfc00317 	ldw	ra,12(sp)
   217f4:	dc800217 	ldw	r18,8(sp)
   217f8:	dc400117 	ldw	r17,4(sp)
   217fc:	dc000017 	ldw	r16,0(sp)
   21800:	dec00404 	addi	sp,sp,16
   21804:	f800283a 	ret
   21808:	1100040c 	andi	r4,r2,16
   2180c:	20003026 	beq	r4,zero,218d0 <__srefill_r+0x1ac>
   21810:	1080020c 	andi	r2,r2,8
   21814:	1000241e 	bne	r2,zero,218a8 <__srefill_r+0x184>
   21818:	18c00114 	ori	r3,r3,4
   2181c:	80c0030d 	sth	r3,12(r16)
   21820:	003fe406 	br	217b4 <__alt_mem_MemoriaImagem1+0xfffc17b4>
   21824:	80c0030b 	ldhu	r3,12(r16)
   21828:	1000161e 	bne	r2,zero,21884 <__srefill_r+0x160>
   2182c:	18c00814 	ori	r3,r3,32
   21830:	00bfffc4 	movi	r2,-1
   21834:	80c0030d 	sth	r3,12(r16)
   21838:	003fed06 	br	217f0 <__alt_mem_MemoriaImagem1+0xfffc17f0>
   2183c:	0025efc0 	call	25efc <__sinit>
   21840:	003fc206 	br	2174c <__alt_mem_MemoriaImagem1+0xfffc174c>
   21844:	008000f4 	movhi	r2,3
   21848:	10884504 	addi	r2,r2,8468
   2184c:	11000017 	ldw	r4,0(r2)
   21850:	014000b4 	movhi	r5,2
   21854:	00800044 	movi	r2,1
   21858:	2945c204 	addi	r5,r5,5896
   2185c:	8080030d 	sth	r2,12(r16)
   21860:	00268f40 	call	268f4 <_fwalk>
   21864:	00800244 	movi	r2,9
   21868:	8480030d 	sth	r18,12(r16)
   2186c:	9480024c 	andi	r18,r18,9
   21870:	90bfd51e 	bne	r18,r2,217c8 <__alt_mem_MemoriaImagem1+0xfffc17c8>
   21874:	800b883a 	mov	r5,r16
   21878:	8809883a 	mov	r4,r17
   2187c:	00258f40 	call	258f4 <__sflush_r>
   21880:	003fd106 	br	217c8 <__alt_mem_MemoriaImagem1+0xfffc17c8>
   21884:	18c01014 	ori	r3,r3,64
   21888:	80000115 	stw	zero,4(r16)
   2188c:	00bfffc4 	movi	r2,-1
   21890:	80c0030d 	sth	r3,12(r16)
   21894:	003fd606 	br	217f0 <__alt_mem_MemoriaImagem1+0xfffc17f0>
   21898:	80c00e17 	ldw	r3,56(r16)
   2189c:	0005883a 	mov	r2,zero
   218a0:	80c00015 	stw	r3,0(r16)
   218a4:	003fd206 	br	217f0 <__alt_mem_MemoriaImagem1+0xfffc17f0>
   218a8:	800b883a 	mov	r5,r16
   218ac:	8809883a 	mov	r4,r17
   218b0:	0025b100 	call	25b10 <_fflush_r>
   218b4:	10000a1e 	bne	r2,zero,218e0 <__srefill_r+0x1bc>
   218b8:	8080030b 	ldhu	r2,12(r16)
   218bc:	00fffdc4 	movi	r3,-9
   218c0:	80000215 	stw	zero,8(r16)
   218c4:	1886703a 	and	r3,r3,r2
   218c8:	80000615 	stw	zero,24(r16)
   218cc:	003fd206 	br	21818 <__alt_mem_MemoriaImagem1+0xfffc1818>
   218d0:	00800244 	movi	r2,9
   218d4:	88800015 	stw	r2,0(r17)
   218d8:	18c01014 	ori	r3,r3,64
   218dc:	80c0030d 	sth	r3,12(r16)
   218e0:	00bfffc4 	movi	r2,-1
   218e4:	003fc206 	br	217f0 <__alt_mem_MemoriaImagem1+0xfffc17f0>
   218e8:	800b883a 	mov	r5,r16
   218ec:	8809883a 	mov	r4,r17
   218f0:	0020bb80 	call	20bb8 <__smakebuf_r>
   218f4:	003fb106 	br	217bc <__alt_mem_MemoriaImagem1+0xfffc17bc>

000218f8 <_sbrk_r>:
   218f8:	defffd04 	addi	sp,sp,-12
   218fc:	dc000015 	stw	r16,0(sp)
   21900:	040000f4 	movhi	r16,3
   21904:	dc400115 	stw	r17,4(sp)
   21908:	840f1804 	addi	r16,r16,15456
   2190c:	2023883a 	mov	r17,r4
   21910:	2809883a 	mov	r4,r5
   21914:	dfc00215 	stw	ra,8(sp)
   21918:	80000015 	stw	zero,0(r16)
   2191c:	002e6840 	call	2e684 <sbrk>
   21920:	00ffffc4 	movi	r3,-1
   21924:	10c00526 	beq	r2,r3,2193c <_sbrk_r+0x44>
   21928:	dfc00217 	ldw	ra,8(sp)
   2192c:	dc400117 	ldw	r17,4(sp)
   21930:	dc000017 	ldw	r16,0(sp)
   21934:	dec00304 	addi	sp,sp,12
   21938:	f800283a 	ret
   2193c:	80c00017 	ldw	r3,0(r16)
   21940:	183ff926 	beq	r3,zero,21928 <__alt_mem_MemoriaImagem1+0xfffc1928>
   21944:	88c00015 	stw	r3,0(r17)
   21948:	003ff706 	br	21928 <__alt_mem_MemoriaImagem1+0xfffc1928>

0002194c <__sread>:
   2194c:	defffe04 	addi	sp,sp,-8
   21950:	dc000015 	stw	r16,0(sp)
   21954:	2821883a 	mov	r16,r5
   21958:	2940038f 	ldh	r5,14(r5)
   2195c:	dfc00115 	stw	ra,4(sp)
   21960:	002804c0 	call	2804c <_read_r>
   21964:	10000716 	blt	r2,zero,21984 <__sread+0x38>
   21968:	80c01417 	ldw	r3,80(r16)
   2196c:	1887883a 	add	r3,r3,r2
   21970:	80c01415 	stw	r3,80(r16)
   21974:	dfc00117 	ldw	ra,4(sp)
   21978:	dc000017 	ldw	r16,0(sp)
   2197c:	dec00204 	addi	sp,sp,8
   21980:	f800283a 	ret
   21984:	80c0030b 	ldhu	r3,12(r16)
   21988:	18fbffcc 	andi	r3,r3,61439
   2198c:	80c0030d 	sth	r3,12(r16)
   21990:	dfc00117 	ldw	ra,4(sp)
   21994:	dc000017 	ldw	r16,0(sp)
   21998:	dec00204 	addi	sp,sp,8
   2199c:	f800283a 	ret

000219a0 <__seofread>:
   219a0:	0005883a 	mov	r2,zero
   219a4:	f800283a 	ret

000219a8 <__swrite>:
   219a8:	2880030b 	ldhu	r2,12(r5)
   219ac:	defffb04 	addi	sp,sp,-20
   219b0:	dcc00315 	stw	r19,12(sp)
   219b4:	dc800215 	stw	r18,8(sp)
   219b8:	dc400115 	stw	r17,4(sp)
   219bc:	dc000015 	stw	r16,0(sp)
   219c0:	dfc00415 	stw	ra,16(sp)
   219c4:	10c0400c 	andi	r3,r2,256
   219c8:	2821883a 	mov	r16,r5
   219cc:	2023883a 	mov	r17,r4
   219d0:	3025883a 	mov	r18,r6
   219d4:	3827883a 	mov	r19,r7
   219d8:	18000526 	beq	r3,zero,219f0 <__swrite+0x48>
   219dc:	2940038f 	ldh	r5,14(r5)
   219e0:	01c00084 	movi	r7,2
   219e4:	000d883a 	mov	r6,zero
   219e8:	0026bac0 	call	26bac <_lseek_r>
   219ec:	8080030b 	ldhu	r2,12(r16)
   219f0:	8140038f 	ldh	r5,14(r16)
   219f4:	10bbffcc 	andi	r2,r2,61439
   219f8:	980f883a 	mov	r7,r19
   219fc:	900d883a 	mov	r6,r18
   21a00:	8809883a 	mov	r4,r17
   21a04:	8080030d 	sth	r2,12(r16)
   21a08:	dfc00417 	ldw	ra,16(sp)
   21a0c:	dcc00317 	ldw	r19,12(sp)
   21a10:	dc800217 	ldw	r18,8(sp)
   21a14:	dc400117 	ldw	r17,4(sp)
   21a18:	dc000017 	ldw	r16,0(sp)
   21a1c:	dec00504 	addi	sp,sp,20
   21a20:	0023e3c1 	jmpi	23e3c <_write_r>

00021a24 <__sseek>:
   21a24:	defffe04 	addi	sp,sp,-8
   21a28:	dc000015 	stw	r16,0(sp)
   21a2c:	2821883a 	mov	r16,r5
   21a30:	2940038f 	ldh	r5,14(r5)
   21a34:	dfc00115 	stw	ra,4(sp)
   21a38:	0026bac0 	call	26bac <_lseek_r>
   21a3c:	00ffffc4 	movi	r3,-1
   21a40:	10c00826 	beq	r2,r3,21a64 <__sseek+0x40>
   21a44:	80c0030b 	ldhu	r3,12(r16)
   21a48:	80801415 	stw	r2,80(r16)
   21a4c:	18c40014 	ori	r3,r3,4096
   21a50:	80c0030d 	sth	r3,12(r16)
   21a54:	dfc00117 	ldw	ra,4(sp)
   21a58:	dc000017 	ldw	r16,0(sp)
   21a5c:	dec00204 	addi	sp,sp,8
   21a60:	f800283a 	ret
   21a64:	80c0030b 	ldhu	r3,12(r16)
   21a68:	18fbffcc 	andi	r3,r3,61439
   21a6c:	80c0030d 	sth	r3,12(r16)
   21a70:	dfc00117 	ldw	ra,4(sp)
   21a74:	dc000017 	ldw	r16,0(sp)
   21a78:	dec00204 	addi	sp,sp,8
   21a7c:	f800283a 	ret

00021a80 <__sclose>:
   21a80:	2940038f 	ldh	r5,14(r5)
   21a84:	0023ff01 	jmpi	23ff0 <_close_r>

00021a88 <___vfprintf_internal_r>:
   21a88:	deffb804 	addi	sp,sp,-288
   21a8c:	dfc04715 	stw	ra,284(sp)
   21a90:	ddc04515 	stw	r23,276(sp)
   21a94:	dd404315 	stw	r21,268(sp)
   21a98:	d9002d15 	stw	r4,180(sp)
   21a9c:	282f883a 	mov	r23,r5
   21aa0:	302b883a 	mov	r21,r6
   21aa4:	d9c02e15 	stw	r7,184(sp)
   21aa8:	df004615 	stw	fp,280(sp)
   21aac:	dd804415 	stw	r22,272(sp)
   21ab0:	dd004215 	stw	r20,264(sp)
   21ab4:	dcc04115 	stw	r19,260(sp)
   21ab8:	dc804015 	stw	r18,256(sp)
   21abc:	dc403f15 	stw	r17,252(sp)
   21ac0:	dc003e15 	stw	r16,248(sp)
   21ac4:	0026b7c0 	call	26b7c <_localeconv_r>
   21ac8:	10800017 	ldw	r2,0(r2)
   21acc:	1009883a 	mov	r4,r2
   21ad0:	d8803415 	stw	r2,208(sp)
   21ad4:	00287600 	call	28760 <strlen>
   21ad8:	d8803715 	stw	r2,220(sp)
   21adc:	d8802d17 	ldw	r2,180(sp)
   21ae0:	10000226 	beq	r2,zero,21aec <___vfprintf_internal_r+0x64>
   21ae4:	10800e17 	ldw	r2,56(r2)
   21ae8:	1000fb26 	beq	r2,zero,21ed8 <___vfprintf_internal_r+0x450>
   21aec:	b880030b 	ldhu	r2,12(r23)
   21af0:	10c8000c 	andi	r3,r2,8192
   21af4:	1800061e 	bne	r3,zero,21b10 <___vfprintf_internal_r+0x88>
   21af8:	b9001917 	ldw	r4,100(r23)
   21afc:	00f7ffc4 	movi	r3,-8193
   21b00:	10880014 	ori	r2,r2,8192
   21b04:	20c6703a 	and	r3,r4,r3
   21b08:	b880030d 	sth	r2,12(r23)
   21b0c:	b8c01915 	stw	r3,100(r23)
   21b10:	10c0020c 	andi	r3,r2,8
   21b14:	1800c326 	beq	r3,zero,21e24 <___vfprintf_internal_r+0x39c>
   21b18:	b8c00417 	ldw	r3,16(r23)
   21b1c:	1800c126 	beq	r3,zero,21e24 <___vfprintf_internal_r+0x39c>
   21b20:	1080068c 	andi	r2,r2,26
   21b24:	00c00284 	movi	r3,10
   21b28:	10c0c626 	beq	r2,r3,21e44 <___vfprintf_internal_r+0x3bc>
   21b2c:	d8c00404 	addi	r3,sp,16
   21b30:	050000f4 	movhi	r20,3
   21b34:	d9001e04 	addi	r4,sp,120
   21b38:	a500ec84 	addi	r20,r20,946
   21b3c:	d8c01e15 	stw	r3,120(sp)
   21b40:	d8002015 	stw	zero,128(sp)
   21b44:	d8001f15 	stw	zero,124(sp)
   21b48:	d8003315 	stw	zero,204(sp)
   21b4c:	d8003615 	stw	zero,216(sp)
   21b50:	d8003815 	stw	zero,224(sp)
   21b54:	1811883a 	mov	r8,r3
   21b58:	d8003915 	stw	zero,228(sp)
   21b5c:	d8003a15 	stw	zero,232(sp)
   21b60:	d8002f15 	stw	zero,188(sp)
   21b64:	d9002815 	stw	r4,160(sp)
   21b68:	a8800007 	ldb	r2,0(r21)
   21b6c:	10028b26 	beq	r2,zero,2259c <___vfprintf_internal_r+0xb14>
   21b70:	00c00944 	movi	r3,37
   21b74:	a823883a 	mov	r17,r21
   21b78:	10c0021e 	bne	r2,r3,21b84 <___vfprintf_internal_r+0xfc>
   21b7c:	00001406 	br	21bd0 <___vfprintf_internal_r+0x148>
   21b80:	10c00326 	beq	r2,r3,21b90 <___vfprintf_internal_r+0x108>
   21b84:	8c400044 	addi	r17,r17,1
   21b88:	88800007 	ldb	r2,0(r17)
   21b8c:	103ffc1e 	bne	r2,zero,21b80 <__alt_mem_MemoriaImagem1+0xfffc1b80>
   21b90:	8d61c83a 	sub	r16,r17,r21
   21b94:	80000e26 	beq	r16,zero,21bd0 <___vfprintf_internal_r+0x148>
   21b98:	d8c02017 	ldw	r3,128(sp)
   21b9c:	d8801f17 	ldw	r2,124(sp)
   21ba0:	45400015 	stw	r21,0(r8)
   21ba4:	1c07883a 	add	r3,r3,r16
   21ba8:	10800044 	addi	r2,r2,1
   21bac:	d8c02015 	stw	r3,128(sp)
   21bb0:	44000115 	stw	r16,4(r8)
   21bb4:	d8801f15 	stw	r2,124(sp)
   21bb8:	00c001c4 	movi	r3,7
   21bbc:	1880a916 	blt	r3,r2,21e64 <___vfprintf_internal_r+0x3dc>
   21bc0:	42000204 	addi	r8,r8,8
   21bc4:	d9402f17 	ldw	r5,188(sp)
   21bc8:	2c0b883a 	add	r5,r5,r16
   21bcc:	d9402f15 	stw	r5,188(sp)
   21bd0:	88800007 	ldb	r2,0(r17)
   21bd4:	1000aa26 	beq	r2,zero,21e80 <___vfprintf_internal_r+0x3f8>
   21bd8:	8d400044 	addi	r21,r17,1
   21bdc:	8c400047 	ldb	r17,1(r17)
   21be0:	0021883a 	mov	r16,zero
   21be4:	00bfffc4 	movi	r2,-1
   21be8:	0025883a 	mov	r18,zero
   21bec:	dc002905 	stb	r16,164(sp)
   21bf0:	d8002785 	stb	zero,158(sp)
   21bf4:	d8002b05 	stb	zero,172(sp)
   21bf8:	d8802a15 	stw	r2,168(sp)
   21bfc:	d8003115 	stw	zero,196(sp)
   21c00:	04c01604 	movi	r19,88
   21c04:	05800244 	movi	r22,9
   21c08:	9021883a 	mov	r16,r18
   21c0c:	4039883a 	mov	fp,r8
   21c10:	ad400044 	addi	r21,r21,1
   21c14:	88bff804 	addi	r2,r17,-32
   21c18:	98833236 	bltu	r19,r2,228e4 <___vfprintf_internal_r+0xe5c>
   21c1c:	100490ba 	slli	r2,r2,2
   21c20:	00c000b4 	movhi	r3,2
   21c24:	18c70d04 	addi	r3,r3,7220
   21c28:	10c5883a 	add	r2,r2,r3
   21c2c:	10800017 	ldw	r2,0(r2)
   21c30:	1000683a 	jmp	r2
   21c34:	000227dc 	xori	zero,zero,2207
   21c38:	000228e4 	muli	zero,zero,2211
   21c3c:	000228e4 	muli	zero,zero,2211
   21c40:	000227fc 	xorhi	zero,zero,2207
   21c44:	000228e4 	muli	zero,zero,2211
   21c48:	000228e4 	muli	zero,zero,2211
   21c4c:	000228e4 	muli	zero,zero,2211
   21c50:	000228e4 	muli	zero,zero,2211
   21c54:	000228e4 	muli	zero,zero,2211
   21c58:	000228e4 	muli	zero,zero,2211
   21c5c:	00021ee4 	muli	zero,zero,2171
   21c60:	000226ec 	andhi	zero,zero,2203
   21c64:	000228e4 	muli	zero,zero,2211
   21c68:	00021da8 	cmpgeui	zero,zero,2166
   21c6c:	00021f08 	cmpgei	zero,zero,2172
   21c70:	000228e4 	muli	zero,zero,2211
   21c74:	00021f58 	cmpnei	zero,zero,2173
   21c78:	00021f64 	muli	zero,zero,2173
   21c7c:	00021f64 	muli	zero,zero,2173
   21c80:	00021f64 	muli	zero,zero,2173
   21c84:	00021f64 	muli	zero,zero,2173
   21c88:	00021f64 	muli	zero,zero,2173
   21c8c:	00021f64 	muli	zero,zero,2173
   21c90:	00021f64 	muli	zero,zero,2173
   21c94:	00021f64 	muli	zero,zero,2173
   21c98:	00021f64 	muli	zero,zero,2173
   21c9c:	000228e4 	muli	zero,zero,2211
   21ca0:	000228e4 	muli	zero,zero,2211
   21ca4:	000228e4 	muli	zero,zero,2211
   21ca8:	000228e4 	muli	zero,zero,2211
   21cac:	000228e4 	muli	zero,zero,2211
   21cb0:	000228e4 	muli	zero,zero,2211
   21cb4:	000228e4 	muli	zero,zero,2211
   21cb8:	000228e4 	muli	zero,zero,2211
   21cbc:	000228e4 	muli	zero,zero,2211
   21cc0:	000228e4 	muli	zero,zero,2211
   21cc4:	00021fa0 	cmpeqi	zero,zero,2174
   21cc8:	00022068 	cmpgeui	zero,zero,2177
   21ccc:	000228e4 	muli	zero,zero,2211
   21cd0:	00022068 	cmpgeui	zero,zero,2177
   21cd4:	000228e4 	muli	zero,zero,2211
   21cd8:	000228e4 	muli	zero,zero,2211
   21cdc:	000228e4 	muli	zero,zero,2211
   21ce0:	000228e4 	muli	zero,zero,2211
   21ce4:	00022114 	movui	zero,2180
   21ce8:	000228e4 	muli	zero,zero,2211
   21cec:	000228e4 	muli	zero,zero,2211
   21cf0:	00022120 	cmpeqi	zero,zero,2180
   21cf4:	000228e4 	muli	zero,zero,2211
   21cf8:	000228e4 	muli	zero,zero,2211
   21cfc:	000228e4 	muli	zero,zero,2211
   21d00:	000228e4 	muli	zero,zero,2211
   21d04:	000228e4 	muli	zero,zero,2211
   21d08:	000225a4 	muli	zero,zero,2198
   21d0c:	000228e4 	muli	zero,zero,2211
   21d10:	000228e4 	muli	zero,zero,2211
   21d14:	00022610 	cmplti	zero,zero,2200
   21d18:	000228e4 	muli	zero,zero,2211
   21d1c:	000228e4 	muli	zero,zero,2211
   21d20:	000228e4 	muli	zero,zero,2211
   21d24:	000228e4 	muli	zero,zero,2211
   21d28:	000228e4 	muli	zero,zero,2211
   21d2c:	000228e4 	muli	zero,zero,2211
   21d30:	000228e4 	muli	zero,zero,2211
   21d34:	000228e4 	muli	zero,zero,2211
   21d38:	000228e4 	muli	zero,zero,2211
   21d3c:	000228e4 	muli	zero,zero,2211
   21d40:	00022888 	cmpgei	zero,zero,2210
   21d44:	00022808 	cmpgei	zero,zero,2208
   21d48:	00022068 	cmpgeui	zero,zero,2177
   21d4c:	00022068 	cmpgeui	zero,zero,2177
   21d50:	00022068 	cmpgeui	zero,zero,2177
   21d54:	00022828 	cmpgeui	zero,zero,2208
   21d58:	00022808 	cmpgei	zero,zero,2208
   21d5c:	000228e4 	muli	zero,zero,2211
   21d60:	000228e4 	muli	zero,zero,2211
   21d64:	00022834 	movhi	zero,2208
   21d68:	000228e4 	muli	zero,zero,2211
   21d6c:	00022848 	cmpgei	zero,zero,2209
   21d70:	000226cc 	andi	zero,zero,2203
   21d74:	00021db4 	movhi	zero,2166
   21d78:	00022704 	movi	zero,2204
   21d7c:	000228e4 	muli	zero,zero,2211
   21d80:	00022710 	cmplti	zero,zero,2204
   21d84:	000228e4 	muli	zero,zero,2211
   21d88:	00022774 	movhi	zero,2205
   21d8c:	000228e4 	muli	zero,zero,2211
   21d90:	000228e4 	muli	zero,zero,2211
   21d94:	00022794 	movui	zero,2206
   21d98:	d8c03117 	ldw	r3,196(sp)
   21d9c:	d8802e15 	stw	r2,184(sp)
   21da0:	00c7c83a 	sub	r3,zero,r3
   21da4:	d8c03115 	stw	r3,196(sp)
   21da8:	84000114 	ori	r16,r16,4
   21dac:	ac400007 	ldb	r17,0(r21)
   21db0:	003f9706 	br	21c10 <__alt_mem_MemoriaImagem1+0xfffc1c10>
   21db4:	00800c04 	movi	r2,48
   21db8:	d8802705 	stb	r2,156(sp)
   21dbc:	00801e04 	movi	r2,120
   21dc0:	d8802745 	stb	r2,157(sp)
   21dc4:	d9002a17 	ldw	r4,168(sp)
   21dc8:	d8802e17 	ldw	r2,184(sp)
   21dcc:	d8002785 	stb	zero,158(sp)
   21dd0:	e011883a 	mov	r8,fp
   21dd4:	10c00104 	addi	r3,r2,4
   21dd8:	14c00017 	ldw	r19,0(r2)
   21ddc:	002d883a 	mov	r22,zero
   21de0:	80800094 	ori	r2,r16,2
   21de4:	2002ca16 	blt	r4,zero,22910 <___vfprintf_internal_r+0xe88>
   21de8:	00bfdfc4 	movi	r2,-129
   21dec:	80a4703a 	and	r18,r16,r2
   21df0:	d8c02e15 	stw	r3,184(sp)
   21df4:	94800094 	ori	r18,r18,2
   21df8:	9802b41e 	bne	r19,zero,228cc <___vfprintf_internal_r+0xe44>
   21dfc:	014000f4 	movhi	r5,3
   21e00:	2940e504 	addi	r5,r5,916
   21e04:	d9403915 	stw	r5,228(sp)
   21e08:	04401e04 	movi	r17,120
   21e0c:	d8802a17 	ldw	r2,168(sp)
   21e10:	0039883a 	mov	fp,zero
   21e14:	1001fa26 	beq	r2,zero,22600 <___vfprintf_internal_r+0xb78>
   21e18:	0027883a 	mov	r19,zero
   21e1c:	002d883a 	mov	r22,zero
   21e20:	00021906 	br	22688 <___vfprintf_internal_r+0xc00>
   21e24:	d9002d17 	ldw	r4,180(sp)
   21e28:	b80b883a 	mov	r5,r23
   21e2c:	0023e9c0 	call	23e9c <__swsetup_r>
   21e30:	1005dc1e 	bne	r2,zero,235a4 <___vfprintf_internal_r+0x1b1c>
   21e34:	b880030b 	ldhu	r2,12(r23)
   21e38:	00c00284 	movi	r3,10
   21e3c:	1080068c 	andi	r2,r2,26
   21e40:	10ff3a1e 	bne	r2,r3,21b2c <__alt_mem_MemoriaImagem1+0xfffc1b2c>
   21e44:	b880038f 	ldh	r2,14(r23)
   21e48:	103f3816 	blt	r2,zero,21b2c <__alt_mem_MemoriaImagem1+0xfffc1b2c>
   21e4c:	d9c02e17 	ldw	r7,184(sp)
   21e50:	d9002d17 	ldw	r4,180(sp)
   21e54:	a80d883a 	mov	r6,r21
   21e58:	b80b883a 	mov	r5,r23
   21e5c:	0023d800 	call	23d80 <__sbprintf>
   21e60:	00001106 	br	21ea8 <___vfprintf_internal_r+0x420>
   21e64:	d9002d17 	ldw	r4,180(sp)
   21e68:	d9801e04 	addi	r6,sp,120
   21e6c:	b80b883a 	mov	r5,r23
   21e70:	00288f40 	call	288f4 <__sprint_r>
   21e74:	1000081e 	bne	r2,zero,21e98 <___vfprintf_internal_r+0x410>
   21e78:	da000404 	addi	r8,sp,16
   21e7c:	003f5106 	br	21bc4 <__alt_mem_MemoriaImagem1+0xfffc1bc4>
   21e80:	d8802017 	ldw	r2,128(sp)
   21e84:	10000426 	beq	r2,zero,21e98 <___vfprintf_internal_r+0x410>
   21e88:	d9002d17 	ldw	r4,180(sp)
   21e8c:	d9801e04 	addi	r6,sp,120
   21e90:	b80b883a 	mov	r5,r23
   21e94:	00288f40 	call	288f4 <__sprint_r>
   21e98:	b880030b 	ldhu	r2,12(r23)
   21e9c:	1080100c 	andi	r2,r2,64
   21ea0:	1005c01e 	bne	r2,zero,235a4 <___vfprintf_internal_r+0x1b1c>
   21ea4:	d8802f17 	ldw	r2,188(sp)
   21ea8:	dfc04717 	ldw	ra,284(sp)
   21eac:	df004617 	ldw	fp,280(sp)
   21eb0:	ddc04517 	ldw	r23,276(sp)
   21eb4:	dd804417 	ldw	r22,272(sp)
   21eb8:	dd404317 	ldw	r21,268(sp)
   21ebc:	dd004217 	ldw	r20,264(sp)
   21ec0:	dcc04117 	ldw	r19,260(sp)
   21ec4:	dc804017 	ldw	r18,256(sp)
   21ec8:	dc403f17 	ldw	r17,252(sp)
   21ecc:	dc003e17 	ldw	r16,248(sp)
   21ed0:	dec04804 	addi	sp,sp,288
   21ed4:	f800283a 	ret
   21ed8:	d9002d17 	ldw	r4,180(sp)
   21edc:	0025efc0 	call	25efc <__sinit>
   21ee0:	003f0206 	br	21aec <__alt_mem_MemoriaImagem1+0xfffc1aec>
   21ee4:	d9002e17 	ldw	r4,184(sp)
   21ee8:	d9402e17 	ldw	r5,184(sp)
   21eec:	21000017 	ldw	r4,0(r4)
   21ef0:	28800104 	addi	r2,r5,4
   21ef4:	d9003115 	stw	r4,196(sp)
   21ef8:	203fa716 	blt	r4,zero,21d98 <__alt_mem_MemoriaImagem1+0xfffc1d98>
   21efc:	d8802e15 	stw	r2,184(sp)
   21f00:	ac400007 	ldb	r17,0(r21)
   21f04:	003f4206 	br	21c10 <__alt_mem_MemoriaImagem1+0xfffc1c10>
   21f08:	ac400007 	ldb	r17,0(r21)
   21f0c:	01000a84 	movi	r4,42
   21f10:	a8c00044 	addi	r3,r21,1
   21f14:	89075826 	beq	r17,r4,23c78 <___vfprintf_internal_r+0x21f0>
   21f18:	8cbff404 	addi	r18,r17,-48
   21f1c:	b486ae36 	bltu	r22,r18,239d8 <___vfprintf_internal_r+0x1f50>
   21f20:	0009883a 	mov	r4,zero
   21f24:	1823883a 	mov	r17,r3
   21f28:	01400284 	movi	r5,10
   21f2c:	002b38c0 	call	2b38c <__mulsi3>
   21f30:	88c00007 	ldb	r3,0(r17)
   21f34:	1489883a 	add	r4,r2,r18
   21f38:	8d400044 	addi	r21,r17,1
   21f3c:	1cbff404 	addi	r18,r3,-48
   21f40:	a823883a 	mov	r17,r21
   21f44:	b4bff82e 	bgeu	r22,r18,21f28 <__alt_mem_MemoriaImagem1+0xfffc1f28>
   21f48:	1823883a 	mov	r17,r3
   21f4c:	2005f616 	blt	r4,zero,23728 <___vfprintf_internal_r+0x1ca0>
   21f50:	d9002a15 	stw	r4,168(sp)
   21f54:	003f2f06 	br	21c14 <__alt_mem_MemoriaImagem1+0xfffc1c14>
   21f58:	84002014 	ori	r16,r16,128
   21f5c:	ac400007 	ldb	r17,0(r21)
   21f60:	003f2b06 	br	21c10 <__alt_mem_MemoriaImagem1+0xfffc1c10>
   21f64:	8cbff404 	addi	r18,r17,-48
   21f68:	d8003115 	stw	zero,196(sp)
   21f6c:	0009883a 	mov	r4,zero
   21f70:	a823883a 	mov	r17,r21
   21f74:	01400284 	movi	r5,10
   21f78:	002b38c0 	call	2b38c <__mulsi3>
   21f7c:	88c00007 	ldb	r3,0(r17)
   21f80:	9089883a 	add	r4,r18,r2
   21f84:	ad400044 	addi	r21,r21,1
   21f88:	1cbff404 	addi	r18,r3,-48
   21f8c:	a823883a 	mov	r17,r21
   21f90:	b4bff82e 	bgeu	r22,r18,21f74 <__alt_mem_MemoriaImagem1+0xfffc1f74>
   21f94:	1823883a 	mov	r17,r3
   21f98:	d9003115 	stw	r4,196(sp)
   21f9c:	003f1d06 	br	21c14 <__alt_mem_MemoriaImagem1+0xfffc1c14>
   21fa0:	8025883a 	mov	r18,r16
   21fa4:	dc002903 	ldbu	r16,164(sp)
   21fa8:	e011883a 	mov	r8,fp
   21fac:	84003fcc 	andi	r16,r16,255
   21fb0:	8007531e 	bne	r16,zero,23d00 <___vfprintf_internal_r+0x2278>
   21fb4:	94800414 	ori	r18,r18,16
   21fb8:	9080080c 	andi	r2,r18,32
   21fbc:	1003a326 	beq	r2,zero,22e4c <___vfprintf_internal_r+0x13c4>
   21fc0:	d9002e17 	ldw	r4,184(sp)
   21fc4:	20800117 	ldw	r2,4(r4)
   21fc8:	24c00017 	ldw	r19,0(r4)
   21fcc:	21000204 	addi	r4,r4,8
   21fd0:	d9002e15 	stw	r4,184(sp)
   21fd4:	102d883a 	mov	r22,r2
   21fd8:	10047316 	blt	r2,zero,231a8 <___vfprintf_internal_r+0x1720>
   21fdc:	d9002a17 	ldw	r4,168(sp)
   21fe0:	df002783 	ldbu	fp,158(sp)
   21fe4:	2003e416 	blt	r4,zero,22f78 <___vfprintf_internal_r+0x14f0>
   21fe8:	00ffdfc4 	movi	r3,-129
   21fec:	9d84b03a 	or	r2,r19,r22
   21ff0:	90e4703a 	and	r18,r18,r3
   21ff4:	10018026 	beq	r2,zero,225f8 <___vfprintf_internal_r+0xb70>
   21ff8:	b003ab26 	beq	r22,zero,22ea8 <___vfprintf_internal_r+0x1420>
   21ffc:	dc402915 	stw	r17,164(sp)
   22000:	dc001e04 	addi	r16,sp,120
   22004:	b023883a 	mov	r17,r22
   22008:	402d883a 	mov	r22,r8
   2200c:	9809883a 	mov	r4,r19
   22010:	880b883a 	mov	r5,r17
   22014:	01800284 	movi	r6,10
   22018:	000f883a 	mov	r7,zero
   2201c:	002ac140 	call	2ac14 <__umoddi3>
   22020:	10800c04 	addi	r2,r2,48
   22024:	843fffc4 	addi	r16,r16,-1
   22028:	9809883a 	mov	r4,r19
   2202c:	880b883a 	mov	r5,r17
   22030:	80800005 	stb	r2,0(r16)
   22034:	01800284 	movi	r6,10
   22038:	000f883a 	mov	r7,zero
   2203c:	002a6180 	call	2a618 <__udivdi3>
   22040:	1027883a 	mov	r19,r2
   22044:	10c4b03a 	or	r2,r2,r3
   22048:	1823883a 	mov	r17,r3
   2204c:	103fef1e 	bne	r2,zero,2200c <__alt_mem_MemoriaImagem1+0xfffc200c>
   22050:	d8c02817 	ldw	r3,160(sp)
   22054:	dc402917 	ldw	r17,164(sp)
   22058:	b011883a 	mov	r8,r22
   2205c:	1c07c83a 	sub	r3,r3,r16
   22060:	d8c02b15 	stw	r3,172(sp)
   22064:	00005f06 	br	221e4 <___vfprintf_internal_r+0x75c>
   22068:	8025883a 	mov	r18,r16
   2206c:	dc002903 	ldbu	r16,164(sp)
   22070:	e011883a 	mov	r8,fp
   22074:	84003fcc 	andi	r16,r16,255
   22078:	80071e1e 	bne	r16,zero,23cf4 <___vfprintf_internal_r+0x226c>
   2207c:	9080020c 	andi	r2,r18,8
   22080:	1004af26 	beq	r2,zero,23340 <___vfprintf_internal_r+0x18b8>
   22084:	d9002e17 	ldw	r4,184(sp)
   22088:	d9402e17 	ldw	r5,184(sp)
   2208c:	d8802e17 	ldw	r2,184(sp)
   22090:	21000017 	ldw	r4,0(r4)
   22094:	29400117 	ldw	r5,4(r5)
   22098:	10800204 	addi	r2,r2,8
   2209c:	d9003615 	stw	r4,216(sp)
   220a0:	d9403815 	stw	r5,224(sp)
   220a4:	d8802e15 	stw	r2,184(sp)
   220a8:	d9003617 	ldw	r4,216(sp)
   220ac:	d9403817 	ldw	r5,224(sp)
   220b0:	da003d15 	stw	r8,244(sp)
   220b4:	04000044 	movi	r16,1
   220b8:	00286100 	call	28610 <__fpclassifyd>
   220bc:	da003d17 	ldw	r8,244(sp)
   220c0:	1404441e 	bne	r2,r16,231d4 <___vfprintf_internal_r+0x174c>
   220c4:	d9003617 	ldw	r4,216(sp)
   220c8:	d9403817 	ldw	r5,224(sp)
   220cc:	000d883a 	mov	r6,zero
   220d0:	000f883a 	mov	r7,zero
   220d4:	002c7940 	call	2c794 <__ledf2>
   220d8:	da003d17 	ldw	r8,244(sp)
   220dc:	1005e316 	blt	r2,zero,2386c <___vfprintf_internal_r+0x1de4>
   220e0:	df002783 	ldbu	fp,158(sp)
   220e4:	008011c4 	movi	r2,71
   220e8:	1445580e 	bge	r2,r17,2364c <___vfprintf_internal_r+0x1bc4>
   220ec:	040000f4 	movhi	r16,3
   220f0:	8400dd04 	addi	r16,r16,884
   220f4:	00c000c4 	movi	r3,3
   220f8:	00bfdfc4 	movi	r2,-129
   220fc:	d8c02915 	stw	r3,164(sp)
   22100:	90a4703a 	and	r18,r18,r2
   22104:	d8c02b15 	stw	r3,172(sp)
   22108:	d8002a15 	stw	zero,168(sp)
   2210c:	d8003215 	stw	zero,200(sp)
   22110:	00003a06 	br	221fc <___vfprintf_internal_r+0x774>
   22114:	84000214 	ori	r16,r16,8
   22118:	ac400007 	ldb	r17,0(r21)
   2211c:	003ebc06 	br	21c10 <__alt_mem_MemoriaImagem1+0xfffc1c10>
   22120:	8025883a 	mov	r18,r16
   22124:	dc002903 	ldbu	r16,164(sp)
   22128:	e011883a 	mov	r8,fp
   2212c:	84003fcc 	andi	r16,r16,255
   22130:	8007001e 	bne	r16,zero,23d34 <___vfprintf_internal_r+0x22ac>
   22134:	94800414 	ori	r18,r18,16
   22138:	9080080c 	andi	r2,r18,32
   2213c:	1002fa26 	beq	r2,zero,22d28 <___vfprintf_internal_r+0x12a0>
   22140:	d9002e17 	ldw	r4,184(sp)
   22144:	d9402a17 	ldw	r5,168(sp)
   22148:	d8002785 	stb	zero,158(sp)
   2214c:	20800204 	addi	r2,r4,8
   22150:	24c00017 	ldw	r19,0(r4)
   22154:	25800117 	ldw	r22,4(r4)
   22158:	2804b116 	blt	r5,zero,23420 <___vfprintf_internal_r+0x1998>
   2215c:	013fdfc4 	movi	r4,-129
   22160:	9d86b03a 	or	r3,r19,r22
   22164:	d8802e15 	stw	r2,184(sp)
   22168:	9124703a 	and	r18,r18,r4
   2216c:	1802fb1e 	bne	r3,zero,22d5c <___vfprintf_internal_r+0x12d4>
   22170:	d8c02a17 	ldw	r3,168(sp)
   22174:	0039883a 	mov	fp,zero
   22178:	1805e526 	beq	r3,zero,23910 <___vfprintf_internal_r+0x1e88>
   2217c:	0027883a 	mov	r19,zero
   22180:	002d883a 	mov	r22,zero
   22184:	dc001e04 	addi	r16,sp,120
   22188:	9806d0fa 	srli	r3,r19,3
   2218c:	b008977a 	slli	r4,r22,29
   22190:	b02cd0fa 	srli	r22,r22,3
   22194:	9cc001cc 	andi	r19,r19,7
   22198:	98800c04 	addi	r2,r19,48
   2219c:	843fffc4 	addi	r16,r16,-1
   221a0:	20e6b03a 	or	r19,r4,r3
   221a4:	80800005 	stb	r2,0(r16)
   221a8:	9d86b03a 	or	r3,r19,r22
   221ac:	183ff61e 	bne	r3,zero,22188 <__alt_mem_MemoriaImagem1+0xfffc2188>
   221b0:	90c0004c 	andi	r3,r18,1
   221b4:	18014126 	beq	r3,zero,226bc <___vfprintf_internal_r+0xc34>
   221b8:	10803fcc 	andi	r2,r2,255
   221bc:	1080201c 	xori	r2,r2,128
   221c0:	10bfe004 	addi	r2,r2,-128
   221c4:	00c00c04 	movi	r3,48
   221c8:	10c13c26 	beq	r2,r3,226bc <___vfprintf_internal_r+0xc34>
   221cc:	80ffffc5 	stb	r3,-1(r16)
   221d0:	d8c02817 	ldw	r3,160(sp)
   221d4:	80bfffc4 	addi	r2,r16,-1
   221d8:	1021883a 	mov	r16,r2
   221dc:	1887c83a 	sub	r3,r3,r2
   221e0:	d8c02b15 	stw	r3,172(sp)
   221e4:	d8802b17 	ldw	r2,172(sp)
   221e8:	d9002a17 	ldw	r4,168(sp)
   221ec:	1100010e 	bge	r2,r4,221f4 <___vfprintf_internal_r+0x76c>
   221f0:	2005883a 	mov	r2,r4
   221f4:	d8802915 	stw	r2,164(sp)
   221f8:	d8003215 	stw	zero,200(sp)
   221fc:	e7003fcc 	andi	fp,fp,255
   22200:	e700201c 	xori	fp,fp,128
   22204:	e73fe004 	addi	fp,fp,-128
   22208:	e0000326 	beq	fp,zero,22218 <___vfprintf_internal_r+0x790>
   2220c:	d8c02917 	ldw	r3,164(sp)
   22210:	18c00044 	addi	r3,r3,1
   22214:	d8c02915 	stw	r3,164(sp)
   22218:	90c0008c 	andi	r3,r18,2
   2221c:	d8c02c15 	stw	r3,176(sp)
   22220:	18000326 	beq	r3,zero,22230 <___vfprintf_internal_r+0x7a8>
   22224:	d8c02917 	ldw	r3,164(sp)
   22228:	18c00084 	addi	r3,r3,2
   2222c:	d8c02915 	stw	r3,164(sp)
   22230:	90c0210c 	andi	r3,r18,132
   22234:	d8c03015 	stw	r3,192(sp)
   22238:	1801c51e 	bne	r3,zero,22950 <___vfprintf_internal_r+0xec8>
   2223c:	d9003117 	ldw	r4,196(sp)
   22240:	d8c02917 	ldw	r3,164(sp)
   22244:	20e7c83a 	sub	r19,r4,r3
   22248:	04c1c10e 	bge	zero,r19,22950 <___vfprintf_internal_r+0xec8>
   2224c:	02400404 	movi	r9,16
   22250:	d8c02017 	ldw	r3,128(sp)
   22254:	d8801f17 	ldw	r2,124(sp)
   22258:	4cc52f0e 	bge	r9,r19,23718 <___vfprintf_internal_r+0x1c90>
   2225c:	014000f4 	movhi	r5,3
   22260:	2940f084 	addi	r5,r5,962
   22264:	dc403b15 	stw	r17,236(sp)
   22268:	d9403515 	stw	r5,212(sp)
   2226c:	9823883a 	mov	r17,r19
   22270:	482d883a 	mov	r22,r9
   22274:	9027883a 	mov	r19,r18
   22278:	070001c4 	movi	fp,7
   2227c:	8025883a 	mov	r18,r16
   22280:	dc002d17 	ldw	r16,180(sp)
   22284:	00000306 	br	22294 <___vfprintf_internal_r+0x80c>
   22288:	8c7ffc04 	addi	r17,r17,-16
   2228c:	42000204 	addi	r8,r8,8
   22290:	b440130e 	bge	r22,r17,222e0 <___vfprintf_internal_r+0x858>
   22294:	010000f4 	movhi	r4,3
   22298:	18c00404 	addi	r3,r3,16
   2229c:	10800044 	addi	r2,r2,1
   222a0:	2100f084 	addi	r4,r4,962
   222a4:	41000015 	stw	r4,0(r8)
   222a8:	45800115 	stw	r22,4(r8)
   222ac:	d8c02015 	stw	r3,128(sp)
   222b0:	d8801f15 	stw	r2,124(sp)
   222b4:	e0bff40e 	bge	fp,r2,22288 <__alt_mem_MemoriaImagem1+0xfffc2288>
   222b8:	d9801e04 	addi	r6,sp,120
   222bc:	b80b883a 	mov	r5,r23
   222c0:	8009883a 	mov	r4,r16
   222c4:	00288f40 	call	288f4 <__sprint_r>
   222c8:	103ef31e 	bne	r2,zero,21e98 <__alt_mem_MemoriaImagem1+0xfffc1e98>
   222cc:	8c7ffc04 	addi	r17,r17,-16
   222d0:	d8c02017 	ldw	r3,128(sp)
   222d4:	d8801f17 	ldw	r2,124(sp)
   222d8:	da000404 	addi	r8,sp,16
   222dc:	b47fed16 	blt	r22,r17,22294 <__alt_mem_MemoriaImagem1+0xfffc2294>
   222e0:	9021883a 	mov	r16,r18
   222e4:	9825883a 	mov	r18,r19
   222e8:	8827883a 	mov	r19,r17
   222ec:	dc403b17 	ldw	r17,236(sp)
   222f0:	d9403517 	ldw	r5,212(sp)
   222f4:	98c7883a 	add	r3,r19,r3
   222f8:	10800044 	addi	r2,r2,1
   222fc:	41400015 	stw	r5,0(r8)
   22300:	44c00115 	stw	r19,4(r8)
   22304:	d8c02015 	stw	r3,128(sp)
   22308:	d8801f15 	stw	r2,124(sp)
   2230c:	010001c4 	movi	r4,7
   22310:	2082c516 	blt	r4,r2,22e28 <___vfprintf_internal_r+0x13a0>
   22314:	df002787 	ldb	fp,158(sp)
   22318:	42000204 	addi	r8,r8,8
   2231c:	e0000c26 	beq	fp,zero,22350 <___vfprintf_internal_r+0x8c8>
   22320:	d8801f17 	ldw	r2,124(sp)
   22324:	d9002784 	addi	r4,sp,158
   22328:	18c00044 	addi	r3,r3,1
   2232c:	10800044 	addi	r2,r2,1
   22330:	41000015 	stw	r4,0(r8)
   22334:	01000044 	movi	r4,1
   22338:	41000115 	stw	r4,4(r8)
   2233c:	d8c02015 	stw	r3,128(sp)
   22340:	d8801f15 	stw	r2,124(sp)
   22344:	010001c4 	movi	r4,7
   22348:	20825e16 	blt	r4,r2,22cc4 <___vfprintf_internal_r+0x123c>
   2234c:	42000204 	addi	r8,r8,8
   22350:	d8802c17 	ldw	r2,176(sp)
   22354:	10000c26 	beq	r2,zero,22388 <___vfprintf_internal_r+0x900>
   22358:	d8801f17 	ldw	r2,124(sp)
   2235c:	d9002704 	addi	r4,sp,156
   22360:	18c00084 	addi	r3,r3,2
   22364:	10800044 	addi	r2,r2,1
   22368:	41000015 	stw	r4,0(r8)
   2236c:	01000084 	movi	r4,2
   22370:	41000115 	stw	r4,4(r8)
   22374:	d8c02015 	stw	r3,128(sp)
   22378:	d8801f15 	stw	r2,124(sp)
   2237c:	010001c4 	movi	r4,7
   22380:	20825816 	blt	r4,r2,22ce4 <___vfprintf_internal_r+0x125c>
   22384:	42000204 	addi	r8,r8,8
   22388:	d9003017 	ldw	r4,192(sp)
   2238c:	00802004 	movi	r2,128
   22390:	2081bb26 	beq	r4,r2,22a80 <___vfprintf_internal_r+0xff8>
   22394:	d9402a17 	ldw	r5,168(sp)
   22398:	d8802b17 	ldw	r2,172(sp)
   2239c:	28adc83a 	sub	r22,r5,r2
   223a0:	0580310e 	bge	zero,r22,22468 <___vfprintf_internal_r+0x9e0>
   223a4:	07000404 	movi	fp,16
   223a8:	d8801f17 	ldw	r2,124(sp)
   223ac:	e584360e 	bge	fp,r22,23488 <___vfprintf_internal_r+0x1a00>
   223b0:	014000f4 	movhi	r5,3
   223b4:	2940ec84 	addi	r5,r5,946
   223b8:	dc402a15 	stw	r17,168(sp)
   223bc:	d9402c15 	stw	r5,176(sp)
   223c0:	b023883a 	mov	r17,r22
   223c4:	04c001c4 	movi	r19,7
   223c8:	a82d883a 	mov	r22,r21
   223cc:	902b883a 	mov	r21,r18
   223d0:	8025883a 	mov	r18,r16
   223d4:	dc002d17 	ldw	r16,180(sp)
   223d8:	00000306 	br	223e8 <___vfprintf_internal_r+0x960>
   223dc:	8c7ffc04 	addi	r17,r17,-16
   223e0:	42000204 	addi	r8,r8,8
   223e4:	e440110e 	bge	fp,r17,2242c <___vfprintf_internal_r+0x9a4>
   223e8:	18c00404 	addi	r3,r3,16
   223ec:	10800044 	addi	r2,r2,1
   223f0:	45000015 	stw	r20,0(r8)
   223f4:	47000115 	stw	fp,4(r8)
   223f8:	d8c02015 	stw	r3,128(sp)
   223fc:	d8801f15 	stw	r2,124(sp)
   22400:	98bff60e 	bge	r19,r2,223dc <__alt_mem_MemoriaImagem1+0xfffc23dc>
   22404:	d9801e04 	addi	r6,sp,120
   22408:	b80b883a 	mov	r5,r23
   2240c:	8009883a 	mov	r4,r16
   22410:	00288f40 	call	288f4 <__sprint_r>
   22414:	103ea01e 	bne	r2,zero,21e98 <__alt_mem_MemoriaImagem1+0xfffc1e98>
   22418:	8c7ffc04 	addi	r17,r17,-16
   2241c:	d8c02017 	ldw	r3,128(sp)
   22420:	d8801f17 	ldw	r2,124(sp)
   22424:	da000404 	addi	r8,sp,16
   22428:	e47fef16 	blt	fp,r17,223e8 <__alt_mem_MemoriaImagem1+0xfffc23e8>
   2242c:	9021883a 	mov	r16,r18
   22430:	a825883a 	mov	r18,r21
   22434:	b02b883a 	mov	r21,r22
   22438:	882d883a 	mov	r22,r17
   2243c:	dc402a17 	ldw	r17,168(sp)
   22440:	d9002c17 	ldw	r4,176(sp)
   22444:	1d87883a 	add	r3,r3,r22
   22448:	10800044 	addi	r2,r2,1
   2244c:	41000015 	stw	r4,0(r8)
   22450:	45800115 	stw	r22,4(r8)
   22454:	d8c02015 	stw	r3,128(sp)
   22458:	d8801f15 	stw	r2,124(sp)
   2245c:	010001c4 	movi	r4,7
   22460:	20821016 	blt	r4,r2,22ca4 <___vfprintf_internal_r+0x121c>
   22464:	42000204 	addi	r8,r8,8
   22468:	9080400c 	andi	r2,r18,256
   2246c:	10013a1e 	bne	r2,zero,22958 <___vfprintf_internal_r+0xed0>
   22470:	d9402b17 	ldw	r5,172(sp)
   22474:	d8801f17 	ldw	r2,124(sp)
   22478:	44000015 	stw	r16,0(r8)
   2247c:	1947883a 	add	r3,r3,r5
   22480:	10800044 	addi	r2,r2,1
   22484:	41400115 	stw	r5,4(r8)
   22488:	d8c02015 	stw	r3,128(sp)
   2248c:	d8801f15 	stw	r2,124(sp)
   22490:	010001c4 	movi	r4,7
   22494:	2081f516 	blt	r4,r2,22c6c <___vfprintf_internal_r+0x11e4>
   22498:	42000204 	addi	r8,r8,8
   2249c:	9480010c 	andi	r18,r18,4
   224a0:	90003226 	beq	r18,zero,2256c <___vfprintf_internal_r+0xae4>
   224a4:	d9403117 	ldw	r5,196(sp)
   224a8:	d8802917 	ldw	r2,164(sp)
   224ac:	28a1c83a 	sub	r16,r5,r2
   224b0:	04002e0e 	bge	zero,r16,2256c <___vfprintf_internal_r+0xae4>
   224b4:	04400404 	movi	r17,16
   224b8:	d8801f17 	ldw	r2,124(sp)
   224bc:	8c04c40e 	bge	r17,r16,237d0 <___vfprintf_internal_r+0x1d48>
   224c0:	014000f4 	movhi	r5,3
   224c4:	2940f084 	addi	r5,r5,962
   224c8:	d9403515 	stw	r5,212(sp)
   224cc:	048001c4 	movi	r18,7
   224d0:	dcc02d17 	ldw	r19,180(sp)
   224d4:	00000306 	br	224e4 <___vfprintf_internal_r+0xa5c>
   224d8:	843ffc04 	addi	r16,r16,-16
   224dc:	42000204 	addi	r8,r8,8
   224e0:	8c00130e 	bge	r17,r16,22530 <___vfprintf_internal_r+0xaa8>
   224e4:	010000f4 	movhi	r4,3
   224e8:	18c00404 	addi	r3,r3,16
   224ec:	10800044 	addi	r2,r2,1
   224f0:	2100f084 	addi	r4,r4,962
   224f4:	41000015 	stw	r4,0(r8)
   224f8:	44400115 	stw	r17,4(r8)
   224fc:	d8c02015 	stw	r3,128(sp)
   22500:	d8801f15 	stw	r2,124(sp)
   22504:	90bff40e 	bge	r18,r2,224d8 <__alt_mem_MemoriaImagem1+0xfffc24d8>
   22508:	d9801e04 	addi	r6,sp,120
   2250c:	b80b883a 	mov	r5,r23
   22510:	9809883a 	mov	r4,r19
   22514:	00288f40 	call	288f4 <__sprint_r>
   22518:	103e5f1e 	bne	r2,zero,21e98 <__alt_mem_MemoriaImagem1+0xfffc1e98>
   2251c:	843ffc04 	addi	r16,r16,-16
   22520:	d8c02017 	ldw	r3,128(sp)
   22524:	d8801f17 	ldw	r2,124(sp)
   22528:	da000404 	addi	r8,sp,16
   2252c:	8c3fed16 	blt	r17,r16,224e4 <__alt_mem_MemoriaImagem1+0xfffc24e4>
   22530:	d9403517 	ldw	r5,212(sp)
   22534:	1c07883a 	add	r3,r3,r16
   22538:	10800044 	addi	r2,r2,1
   2253c:	41400015 	stw	r5,0(r8)
   22540:	44000115 	stw	r16,4(r8)
   22544:	d8c02015 	stw	r3,128(sp)
   22548:	d8801f15 	stw	r2,124(sp)
   2254c:	010001c4 	movi	r4,7
   22550:	2080060e 	bge	r4,r2,2256c <___vfprintf_internal_r+0xae4>
   22554:	d9002d17 	ldw	r4,180(sp)
   22558:	d9801e04 	addi	r6,sp,120
   2255c:	b80b883a 	mov	r5,r23
   22560:	00288f40 	call	288f4 <__sprint_r>
   22564:	103e4c1e 	bne	r2,zero,21e98 <__alt_mem_MemoriaImagem1+0xfffc1e98>
   22568:	d8c02017 	ldw	r3,128(sp)
   2256c:	d8803117 	ldw	r2,196(sp)
   22570:	d9002917 	ldw	r4,164(sp)
   22574:	1100010e 	bge	r2,r4,2257c <___vfprintf_internal_r+0xaf4>
   22578:	2005883a 	mov	r2,r4
   2257c:	d9402f17 	ldw	r5,188(sp)
   22580:	288b883a 	add	r5,r5,r2
   22584:	d9402f15 	stw	r5,188(sp)
   22588:	1801c01e 	bne	r3,zero,22c8c <___vfprintf_internal_r+0x1204>
   2258c:	a8800007 	ldb	r2,0(r21)
   22590:	d8001f15 	stw	zero,124(sp)
   22594:	da000404 	addi	r8,sp,16
   22598:	103d751e 	bne	r2,zero,21b70 <__alt_mem_MemoriaImagem1+0xfffc1b70>
   2259c:	a823883a 	mov	r17,r21
   225a0:	003d8b06 	br	21bd0 <__alt_mem_MemoriaImagem1+0xfffc1bd0>
   225a4:	8025883a 	mov	r18,r16
   225a8:	dc002903 	ldbu	r16,164(sp)
   225ac:	e011883a 	mov	r8,fp
   225b0:	84003fcc 	andi	r16,r16,255
   225b4:	8005e51e 	bne	r16,zero,23d4c <___vfprintf_internal_r+0x22c4>
   225b8:	94800414 	ori	r18,r18,16
   225bc:	9080080c 	andi	r2,r18,32
   225c0:	10022b26 	beq	r2,zero,22e70 <___vfprintf_internal_r+0x13e8>
   225c4:	d9002e17 	ldw	r4,184(sp)
   225c8:	d9402a17 	ldw	r5,168(sp)
   225cc:	d8002785 	stb	zero,158(sp)
   225d0:	20c00204 	addi	r3,r4,8
   225d4:	24c00017 	ldw	r19,0(r4)
   225d8:	25800117 	ldw	r22,4(r4)
   225dc:	28042e16 	blt	r5,zero,23698 <___vfprintf_internal_r+0x1c10>
   225e0:	013fdfc4 	movi	r4,-129
   225e4:	9d84b03a 	or	r2,r19,r22
   225e8:	d8c02e15 	stw	r3,184(sp)
   225ec:	9124703a 	and	r18,r18,r4
   225f0:	0039883a 	mov	fp,zero
   225f4:	103e801e 	bne	r2,zero,21ff8 <__alt_mem_MemoriaImagem1+0xfffc1ff8>
   225f8:	d9002a17 	ldw	r4,168(sp)
   225fc:	2002e01e 	bne	r4,zero,23180 <___vfprintf_internal_r+0x16f8>
   22600:	d8002a15 	stw	zero,168(sp)
   22604:	d8002b15 	stw	zero,172(sp)
   22608:	dc001e04 	addi	r16,sp,120
   2260c:	003ef506 	br	221e4 <__alt_mem_MemoriaImagem1+0xfffc21e4>
   22610:	8025883a 	mov	r18,r16
   22614:	dc002903 	ldbu	r16,164(sp)
   22618:	e011883a 	mov	r8,fp
   2261c:	84003fcc 	andi	r16,r16,255
   22620:	8005ba1e 	bne	r16,zero,23d0c <___vfprintf_internal_r+0x2284>
   22624:	010000f4 	movhi	r4,3
   22628:	2100e004 	addi	r4,r4,896
   2262c:	d9003915 	stw	r4,228(sp)
   22630:	9080080c 	andi	r2,r18,32
   22634:	10006126 	beq	r2,zero,227bc <___vfprintf_internal_r+0xd34>
   22638:	d9402e17 	ldw	r5,184(sp)
   2263c:	2cc00017 	ldw	r19,0(r5)
   22640:	2d800117 	ldw	r22,4(r5)
   22644:	29400204 	addi	r5,r5,8
   22648:	d9402e15 	stw	r5,184(sp)
   2264c:	9080004c 	andi	r2,r18,1
   22650:	1001ac26 	beq	r2,zero,22d04 <___vfprintf_internal_r+0x127c>
   22654:	9d84b03a 	or	r2,r19,r22
   22658:	10038526 	beq	r2,zero,23470 <___vfprintf_internal_r+0x19e8>
   2265c:	d8c02a17 	ldw	r3,168(sp)
   22660:	00800c04 	movi	r2,48
   22664:	d8802705 	stb	r2,156(sp)
   22668:	dc402745 	stb	r17,157(sp)
   2266c:	d8002785 	stb	zero,158(sp)
   22670:	90800094 	ori	r2,r18,2
   22674:	18047916 	blt	r3,zero,2385c <___vfprintf_internal_r+0x1dd4>
   22678:	00bfdfc4 	movi	r2,-129
   2267c:	90a4703a 	and	r18,r18,r2
   22680:	94800094 	ori	r18,r18,2
   22684:	0039883a 	mov	fp,zero
   22688:	d9003917 	ldw	r4,228(sp)
   2268c:	dc001e04 	addi	r16,sp,120
   22690:	988003cc 	andi	r2,r19,15
   22694:	b006973a 	slli	r3,r22,28
   22698:	2085883a 	add	r2,r4,r2
   2269c:	9826d13a 	srli	r19,r19,4
   226a0:	10800003 	ldbu	r2,0(r2)
   226a4:	b02cd13a 	srli	r22,r22,4
   226a8:	843fffc4 	addi	r16,r16,-1
   226ac:	1ce6b03a 	or	r19,r3,r19
   226b0:	80800005 	stb	r2,0(r16)
   226b4:	9d84b03a 	or	r2,r19,r22
   226b8:	103ff51e 	bne	r2,zero,22690 <__alt_mem_MemoriaImagem1+0xfffc2690>
   226bc:	d8c02817 	ldw	r3,160(sp)
   226c0:	1c07c83a 	sub	r3,r3,r16
   226c4:	d8c02b15 	stw	r3,172(sp)
   226c8:	003ec606 	br	221e4 <__alt_mem_MemoriaImagem1+0xfffc21e4>
   226cc:	8025883a 	mov	r18,r16
   226d0:	dc002903 	ldbu	r16,164(sp)
   226d4:	e011883a 	mov	r8,fp
   226d8:	84003fcc 	andi	r16,r16,255
   226dc:	803e9626 	beq	r16,zero,22138 <__alt_mem_MemoriaImagem1+0xfffc2138>
   226e0:	d8c02b03 	ldbu	r3,172(sp)
   226e4:	d8c02785 	stb	r3,158(sp)
   226e8:	003e9306 	br	22138 <__alt_mem_MemoriaImagem1+0xfffc2138>
   226ec:	00c00044 	movi	r3,1
   226f0:	d8c02905 	stb	r3,164(sp)
   226f4:	00c00ac4 	movi	r3,43
   226f8:	d8c02b05 	stb	r3,172(sp)
   226fc:	ac400007 	ldb	r17,0(r21)
   22700:	003d4306 	br	21c10 <__alt_mem_MemoriaImagem1+0xfffc1c10>
   22704:	84000814 	ori	r16,r16,32
   22708:	ac400007 	ldb	r17,0(r21)
   2270c:	003d4006 	br	21c10 <__alt_mem_MemoriaImagem1+0xfffc1c10>
   22710:	d8802e17 	ldw	r2,184(sp)
   22714:	8025883a 	mov	r18,r16
   22718:	d8002785 	stb	zero,158(sp)
   2271c:	14000017 	ldw	r16,0(r2)
   22720:	e011883a 	mov	r8,fp
   22724:	14c00104 	addi	r19,r2,4
   22728:	80042d26 	beq	r16,zero,237e0 <___vfprintf_internal_r+0x1d58>
   2272c:	d8c02a17 	ldw	r3,168(sp)
   22730:	1803e416 	blt	r3,zero,236c4 <___vfprintf_internal_r+0x1c3c>
   22734:	180d883a 	mov	r6,r3
   22738:	000b883a 	mov	r5,zero
   2273c:	8009883a 	mov	r4,r16
   22740:	df003d15 	stw	fp,244(sp)
   22744:	0026c0c0 	call	26c0c <memchr>
   22748:	da003d17 	ldw	r8,244(sp)
   2274c:	10046826 	beq	r2,zero,238f0 <___vfprintf_internal_r+0x1e68>
   22750:	1405c83a 	sub	r2,r2,r16
   22754:	d8802b15 	stw	r2,172(sp)
   22758:	1003e016 	blt	r2,zero,236dc <___vfprintf_internal_r+0x1c54>
   2275c:	df002783 	ldbu	fp,158(sp)
   22760:	d8802915 	stw	r2,164(sp)
   22764:	dcc02e15 	stw	r19,184(sp)
   22768:	d8002a15 	stw	zero,168(sp)
   2276c:	d8003215 	stw	zero,200(sp)
   22770:	003ea206 	br	221fc <__alt_mem_MemoriaImagem1+0xfffc21fc>
   22774:	8025883a 	mov	r18,r16
   22778:	dc002903 	ldbu	r16,164(sp)
   2277c:	e011883a 	mov	r8,fp
   22780:	84003fcc 	andi	r16,r16,255
   22784:	803f8d26 	beq	r16,zero,225bc <__alt_mem_MemoriaImagem1+0xfffc25bc>
   22788:	d8c02b03 	ldbu	r3,172(sp)
   2278c:	d8c02785 	stb	r3,158(sp)
   22790:	003f8a06 	br	225bc <__alt_mem_MemoriaImagem1+0xfffc25bc>
   22794:	8025883a 	mov	r18,r16
   22798:	dc002903 	ldbu	r16,164(sp)
   2279c:	e011883a 	mov	r8,fp
   227a0:	84003fcc 	andi	r16,r16,255
   227a4:	8005661e 	bne	r16,zero,23d40 <___vfprintf_internal_r+0x22b8>
   227a8:	010000f4 	movhi	r4,3
   227ac:	2100e504 	addi	r4,r4,916
   227b0:	d9003915 	stw	r4,228(sp)
   227b4:	9080080c 	andi	r2,r18,32
   227b8:	103f9f1e 	bne	r2,zero,22638 <__alt_mem_MemoriaImagem1+0xfffc2638>
   227bc:	9080040c 	andi	r2,r18,16
   227c0:	1002eb26 	beq	r2,zero,23370 <___vfprintf_internal_r+0x18e8>
   227c4:	d8802e17 	ldw	r2,184(sp)
   227c8:	002d883a 	mov	r22,zero
   227cc:	14c00017 	ldw	r19,0(r2)
   227d0:	10800104 	addi	r2,r2,4
   227d4:	d8802e15 	stw	r2,184(sp)
   227d8:	003f9c06 	br	2264c <__alt_mem_MemoriaImagem1+0xfffc264c>
   227dc:	d8802b07 	ldb	r2,172(sp)
   227e0:	1002e11e 	bne	r2,zero,23368 <___vfprintf_internal_r+0x18e0>
   227e4:	00c00044 	movi	r3,1
   227e8:	d8c02905 	stb	r3,164(sp)
   227ec:	00c00804 	movi	r3,32
   227f0:	d8c02b05 	stb	r3,172(sp)
   227f4:	ac400007 	ldb	r17,0(r21)
   227f8:	003d0506 	br	21c10 <__alt_mem_MemoriaImagem1+0xfffc1c10>
   227fc:	84000054 	ori	r16,r16,1
   22800:	ac400007 	ldb	r17,0(r21)
   22804:	003d0206 	br	21c10 <__alt_mem_MemoriaImagem1+0xfffc1c10>
   22808:	8025883a 	mov	r18,r16
   2280c:	dc002903 	ldbu	r16,164(sp)
   22810:	e011883a 	mov	r8,fp
   22814:	84003fcc 	andi	r16,r16,255
   22818:	803de726 	beq	r16,zero,21fb8 <__alt_mem_MemoriaImagem1+0xfffc1fb8>
   2281c:	d8c02b03 	ldbu	r3,172(sp)
   22820:	d8c02785 	stb	r3,158(sp)
   22824:	003de406 	br	21fb8 <__alt_mem_MemoriaImagem1+0xfffc1fb8>
   22828:	84001014 	ori	r16,r16,64
   2282c:	ac400007 	ldb	r17,0(r21)
   22830:	003cf706 	br	21c10 <__alt_mem_MemoriaImagem1+0xfffc1c10>
   22834:	ac400007 	ldb	r17,0(r21)
   22838:	00801b04 	movi	r2,108
   2283c:	88838f26 	beq	r17,r2,2367c <___vfprintf_internal_r+0x1bf4>
   22840:	84000414 	ori	r16,r16,16
   22844:	003cf206 	br	21c10 <__alt_mem_MemoriaImagem1+0xfffc1c10>
   22848:	8025883a 	mov	r18,r16
   2284c:	dc002903 	ldbu	r16,164(sp)
   22850:	e011883a 	mov	r8,fp
   22854:	84003fcc 	andi	r16,r16,255
   22858:	80053f1e 	bne	r16,zero,23d58 <___vfprintf_internal_r+0x22d0>
   2285c:	9080080c 	andi	r2,r18,32
   22860:	1002d226 	beq	r2,zero,233ac <___vfprintf_internal_r+0x1924>
   22864:	d9002e17 	ldw	r4,184(sp)
   22868:	d9402f17 	ldw	r5,188(sp)
   2286c:	20800017 	ldw	r2,0(r4)
   22870:	2807d7fa 	srai	r3,r5,31
   22874:	21000104 	addi	r4,r4,4
   22878:	d9002e15 	stw	r4,184(sp)
   2287c:	11400015 	stw	r5,0(r2)
   22880:	10c00115 	stw	r3,4(r2)
   22884:	003cb806 	br	21b68 <__alt_mem_MemoriaImagem1+0xfffc1b68>
   22888:	d8c02e17 	ldw	r3,184(sp)
   2288c:	d9002e17 	ldw	r4,184(sp)
   22890:	8025883a 	mov	r18,r16
   22894:	18800017 	ldw	r2,0(r3)
   22898:	21000104 	addi	r4,r4,4
   2289c:	00c00044 	movi	r3,1
   228a0:	e011883a 	mov	r8,fp
   228a4:	d8c02915 	stw	r3,164(sp)
   228a8:	d8002785 	stb	zero,158(sp)
   228ac:	d8801405 	stb	r2,80(sp)
   228b0:	d9002e15 	stw	r4,184(sp)
   228b4:	d8c02b15 	stw	r3,172(sp)
   228b8:	d8002a15 	stw	zero,168(sp)
   228bc:	d8003215 	stw	zero,200(sp)
   228c0:	dc001404 	addi	r16,sp,80
   228c4:	0039883a 	mov	fp,zero
   228c8:	003e5306 	br	22218 <__alt_mem_MemoriaImagem1+0xfffc2218>
   228cc:	010000f4 	movhi	r4,3
   228d0:	2100e504 	addi	r4,r4,916
   228d4:	0039883a 	mov	fp,zero
   228d8:	d9003915 	stw	r4,228(sp)
   228dc:	04401e04 	movi	r17,120
   228e0:	003f6906 	br	22688 <__alt_mem_MemoriaImagem1+0xfffc2688>
   228e4:	8025883a 	mov	r18,r16
   228e8:	dc002903 	ldbu	r16,164(sp)
   228ec:	e011883a 	mov	r8,fp
   228f0:	84003fcc 	andi	r16,r16,255
   228f4:	8005081e 	bne	r16,zero,23d18 <___vfprintf_internal_r+0x2290>
   228f8:	883d6126 	beq	r17,zero,21e80 <__alt_mem_MemoriaImagem1+0xfffc1e80>
   228fc:	00c00044 	movi	r3,1
   22900:	d8c02915 	stw	r3,164(sp)
   22904:	dc401405 	stb	r17,80(sp)
   22908:	d8002785 	stb	zero,158(sp)
   2290c:	003fe906 	br	228b4 <__alt_mem_MemoriaImagem1+0xfffc28b4>
   22910:	014000f4 	movhi	r5,3
   22914:	2940e504 	addi	r5,r5,916
   22918:	d9403915 	stw	r5,228(sp)
   2291c:	d8c02e15 	stw	r3,184(sp)
   22920:	1025883a 	mov	r18,r2
   22924:	04401e04 	movi	r17,120
   22928:	9d84b03a 	or	r2,r19,r22
   2292c:	1000fc1e 	bne	r2,zero,22d20 <___vfprintf_internal_r+0x1298>
   22930:	0039883a 	mov	fp,zero
   22934:	00800084 	movi	r2,2
   22938:	10803fcc 	andi	r2,r2,255
   2293c:	00c00044 	movi	r3,1
   22940:	10c20f26 	beq	r2,r3,23180 <___vfprintf_internal_r+0x16f8>
   22944:	00c00084 	movi	r3,2
   22948:	10fd3326 	beq	r2,r3,21e18 <__alt_mem_MemoriaImagem1+0xfffc1e18>
   2294c:	003e0b06 	br	2217c <__alt_mem_MemoriaImagem1+0xfffc217c>
   22950:	d8c02017 	ldw	r3,128(sp)
   22954:	003e7106 	br	2231c <__alt_mem_MemoriaImagem1+0xfffc231c>
   22958:	00801944 	movi	r2,101
   2295c:	14407e0e 	bge	r2,r17,22b58 <___vfprintf_internal_r+0x10d0>
   22960:	d9003617 	ldw	r4,216(sp)
   22964:	d9403817 	ldw	r5,224(sp)
   22968:	000d883a 	mov	r6,zero
   2296c:	000f883a 	mov	r7,zero
   22970:	d8c03c15 	stw	r3,240(sp)
   22974:	da003d15 	stw	r8,244(sp)
   22978:	002c6300 	call	2c630 <__eqdf2>
   2297c:	d8c03c17 	ldw	r3,240(sp)
   22980:	da003d17 	ldw	r8,244(sp)
   22984:	1000f71e 	bne	r2,zero,22d64 <___vfprintf_internal_r+0x12dc>
   22988:	d8801f17 	ldw	r2,124(sp)
   2298c:	010000f4 	movhi	r4,3
   22990:	2100ec04 	addi	r4,r4,944
   22994:	18c00044 	addi	r3,r3,1
   22998:	10800044 	addi	r2,r2,1
   2299c:	41000015 	stw	r4,0(r8)
   229a0:	01000044 	movi	r4,1
   229a4:	41000115 	stw	r4,4(r8)
   229a8:	d8c02015 	stw	r3,128(sp)
   229ac:	d8801f15 	stw	r2,124(sp)
   229b0:	010001c4 	movi	r4,7
   229b4:	2082b816 	blt	r4,r2,23498 <___vfprintf_internal_r+0x1a10>
   229b8:	42000204 	addi	r8,r8,8
   229bc:	d8802617 	ldw	r2,152(sp)
   229c0:	d9403317 	ldw	r5,204(sp)
   229c4:	11400216 	blt	r2,r5,229d0 <___vfprintf_internal_r+0xf48>
   229c8:	9080004c 	andi	r2,r18,1
   229cc:	103eb326 	beq	r2,zero,2249c <__alt_mem_MemoriaImagem1+0xfffc249c>
   229d0:	d8803717 	ldw	r2,220(sp)
   229d4:	d9003417 	ldw	r4,208(sp)
   229d8:	d9403717 	ldw	r5,220(sp)
   229dc:	1887883a 	add	r3,r3,r2
   229e0:	d8801f17 	ldw	r2,124(sp)
   229e4:	41000015 	stw	r4,0(r8)
   229e8:	41400115 	stw	r5,4(r8)
   229ec:	10800044 	addi	r2,r2,1
   229f0:	d8c02015 	stw	r3,128(sp)
   229f4:	d8801f15 	stw	r2,124(sp)
   229f8:	010001c4 	movi	r4,7
   229fc:	20832916 	blt	r4,r2,236a4 <___vfprintf_internal_r+0x1c1c>
   22a00:	42000204 	addi	r8,r8,8
   22a04:	d8803317 	ldw	r2,204(sp)
   22a08:	143fffc4 	addi	r16,r2,-1
   22a0c:	043ea30e 	bge	zero,r16,2249c <__alt_mem_MemoriaImagem1+0xfffc249c>
   22a10:	04400404 	movi	r17,16
   22a14:	d8801f17 	ldw	r2,124(sp)
   22a18:	8c00880e 	bge	r17,r16,22c3c <___vfprintf_internal_r+0x11b4>
   22a1c:	014000f4 	movhi	r5,3
   22a20:	2940ec84 	addi	r5,r5,946
   22a24:	d9402c15 	stw	r5,176(sp)
   22a28:	058001c4 	movi	r22,7
   22a2c:	dcc02d17 	ldw	r19,180(sp)
   22a30:	00000306 	br	22a40 <___vfprintf_internal_r+0xfb8>
   22a34:	42000204 	addi	r8,r8,8
   22a38:	843ffc04 	addi	r16,r16,-16
   22a3c:	8c00820e 	bge	r17,r16,22c48 <___vfprintf_internal_r+0x11c0>
   22a40:	18c00404 	addi	r3,r3,16
   22a44:	10800044 	addi	r2,r2,1
   22a48:	45000015 	stw	r20,0(r8)
   22a4c:	44400115 	stw	r17,4(r8)
   22a50:	d8c02015 	stw	r3,128(sp)
   22a54:	d8801f15 	stw	r2,124(sp)
   22a58:	b0bff60e 	bge	r22,r2,22a34 <__alt_mem_MemoriaImagem1+0xfffc2a34>
   22a5c:	d9801e04 	addi	r6,sp,120
   22a60:	b80b883a 	mov	r5,r23
   22a64:	9809883a 	mov	r4,r19
   22a68:	00288f40 	call	288f4 <__sprint_r>
   22a6c:	103d0a1e 	bne	r2,zero,21e98 <__alt_mem_MemoriaImagem1+0xfffc1e98>
   22a70:	d8c02017 	ldw	r3,128(sp)
   22a74:	d8801f17 	ldw	r2,124(sp)
   22a78:	da000404 	addi	r8,sp,16
   22a7c:	003fee06 	br	22a38 <__alt_mem_MemoriaImagem1+0xfffc2a38>
   22a80:	d9403117 	ldw	r5,196(sp)
   22a84:	d8802917 	ldw	r2,164(sp)
   22a88:	28adc83a 	sub	r22,r5,r2
   22a8c:	05be410e 	bge	zero,r22,22394 <__alt_mem_MemoriaImagem1+0xfffc2394>
   22a90:	07000404 	movi	fp,16
   22a94:	d8801f17 	ldw	r2,124(sp)
   22a98:	e5838f0e 	bge	fp,r22,238d8 <___vfprintf_internal_r+0x1e50>
   22a9c:	014000f4 	movhi	r5,3
   22aa0:	2940ec84 	addi	r5,r5,946
   22aa4:	dc403015 	stw	r17,192(sp)
   22aa8:	d9402c15 	stw	r5,176(sp)
   22aac:	b023883a 	mov	r17,r22
   22ab0:	04c001c4 	movi	r19,7
   22ab4:	a82d883a 	mov	r22,r21
   22ab8:	902b883a 	mov	r21,r18
   22abc:	8025883a 	mov	r18,r16
   22ac0:	dc002d17 	ldw	r16,180(sp)
   22ac4:	00000306 	br	22ad4 <___vfprintf_internal_r+0x104c>
   22ac8:	8c7ffc04 	addi	r17,r17,-16
   22acc:	42000204 	addi	r8,r8,8
   22ad0:	e440110e 	bge	fp,r17,22b18 <___vfprintf_internal_r+0x1090>
   22ad4:	18c00404 	addi	r3,r3,16
   22ad8:	10800044 	addi	r2,r2,1
   22adc:	45000015 	stw	r20,0(r8)
   22ae0:	47000115 	stw	fp,4(r8)
   22ae4:	d8c02015 	stw	r3,128(sp)
   22ae8:	d8801f15 	stw	r2,124(sp)
   22aec:	98bff60e 	bge	r19,r2,22ac8 <__alt_mem_MemoriaImagem1+0xfffc2ac8>
   22af0:	d9801e04 	addi	r6,sp,120
   22af4:	b80b883a 	mov	r5,r23
   22af8:	8009883a 	mov	r4,r16
   22afc:	00288f40 	call	288f4 <__sprint_r>
   22b00:	103ce51e 	bne	r2,zero,21e98 <__alt_mem_MemoriaImagem1+0xfffc1e98>
   22b04:	8c7ffc04 	addi	r17,r17,-16
   22b08:	d8c02017 	ldw	r3,128(sp)
   22b0c:	d8801f17 	ldw	r2,124(sp)
   22b10:	da000404 	addi	r8,sp,16
   22b14:	e47fef16 	blt	fp,r17,22ad4 <__alt_mem_MemoriaImagem1+0xfffc2ad4>
   22b18:	9021883a 	mov	r16,r18
   22b1c:	a825883a 	mov	r18,r21
   22b20:	b02b883a 	mov	r21,r22
   22b24:	882d883a 	mov	r22,r17
   22b28:	dc403017 	ldw	r17,192(sp)
   22b2c:	d9002c17 	ldw	r4,176(sp)
   22b30:	1d87883a 	add	r3,r3,r22
   22b34:	10800044 	addi	r2,r2,1
   22b38:	41000015 	stw	r4,0(r8)
   22b3c:	45800115 	stw	r22,4(r8)
   22b40:	d8c02015 	stw	r3,128(sp)
   22b44:	d8801f15 	stw	r2,124(sp)
   22b48:	010001c4 	movi	r4,7
   22b4c:	20818e16 	blt	r4,r2,23188 <___vfprintf_internal_r+0x1700>
   22b50:	42000204 	addi	r8,r8,8
   22b54:	003e0f06 	br	22394 <__alt_mem_MemoriaImagem1+0xfffc2394>
   22b58:	d9403317 	ldw	r5,204(sp)
   22b5c:	00800044 	movi	r2,1
   22b60:	18c00044 	addi	r3,r3,1
   22b64:	1141530e 	bge	r2,r5,230b4 <___vfprintf_internal_r+0x162c>
   22b68:	dc401f17 	ldw	r17,124(sp)
   22b6c:	00800044 	movi	r2,1
   22b70:	40800115 	stw	r2,4(r8)
   22b74:	8c400044 	addi	r17,r17,1
   22b78:	44000015 	stw	r16,0(r8)
   22b7c:	d8c02015 	stw	r3,128(sp)
   22b80:	dc401f15 	stw	r17,124(sp)
   22b84:	008001c4 	movi	r2,7
   22b88:	14416b16 	blt	r2,r17,23138 <___vfprintf_internal_r+0x16b0>
   22b8c:	42000204 	addi	r8,r8,8
   22b90:	d8803717 	ldw	r2,220(sp)
   22b94:	d9003417 	ldw	r4,208(sp)
   22b98:	8c400044 	addi	r17,r17,1
   22b9c:	10c7883a 	add	r3,r2,r3
   22ba0:	40800115 	stw	r2,4(r8)
   22ba4:	41000015 	stw	r4,0(r8)
   22ba8:	d8c02015 	stw	r3,128(sp)
   22bac:	dc401f15 	stw	r17,124(sp)
   22bb0:	008001c4 	movi	r2,7
   22bb4:	14416916 	blt	r2,r17,2315c <___vfprintf_internal_r+0x16d4>
   22bb8:	45800204 	addi	r22,r8,8
   22bbc:	d9003617 	ldw	r4,216(sp)
   22bc0:	d9403817 	ldw	r5,224(sp)
   22bc4:	000d883a 	mov	r6,zero
   22bc8:	000f883a 	mov	r7,zero
   22bcc:	d8c03c15 	stw	r3,240(sp)
   22bd0:	002c6300 	call	2c630 <__eqdf2>
   22bd4:	d8c03c17 	ldw	r3,240(sp)
   22bd8:	1000bc26 	beq	r2,zero,22ecc <___vfprintf_internal_r+0x1444>
   22bdc:	d9403317 	ldw	r5,204(sp)
   22be0:	84000044 	addi	r16,r16,1
   22be4:	8c400044 	addi	r17,r17,1
   22be8:	28bfffc4 	addi	r2,r5,-1
   22bec:	1887883a 	add	r3,r3,r2
   22bf0:	b0800115 	stw	r2,4(r22)
   22bf4:	b4000015 	stw	r16,0(r22)
   22bf8:	d8c02015 	stw	r3,128(sp)
   22bfc:	dc401f15 	stw	r17,124(sp)
   22c00:	008001c4 	movi	r2,7
   22c04:	14414316 	blt	r2,r17,23114 <___vfprintf_internal_r+0x168c>
   22c08:	b5800204 	addi	r22,r22,8
   22c0c:	d9003a17 	ldw	r4,232(sp)
   22c10:	df0022c4 	addi	fp,sp,139
   22c14:	8c400044 	addi	r17,r17,1
   22c18:	20c7883a 	add	r3,r4,r3
   22c1c:	b7000015 	stw	fp,0(r22)
   22c20:	b1000115 	stw	r4,4(r22)
   22c24:	d8c02015 	stw	r3,128(sp)
   22c28:	dc401f15 	stw	r17,124(sp)
   22c2c:	008001c4 	movi	r2,7
   22c30:	14400e16 	blt	r2,r17,22c6c <___vfprintf_internal_r+0x11e4>
   22c34:	b2000204 	addi	r8,r22,8
   22c38:	003e1806 	br	2249c <__alt_mem_MemoriaImagem1+0xfffc249c>
   22c3c:	010000f4 	movhi	r4,3
   22c40:	2100ec84 	addi	r4,r4,946
   22c44:	d9002c15 	stw	r4,176(sp)
   22c48:	d9002c17 	ldw	r4,176(sp)
   22c4c:	1c07883a 	add	r3,r3,r16
   22c50:	44000115 	stw	r16,4(r8)
   22c54:	41000015 	stw	r4,0(r8)
   22c58:	10800044 	addi	r2,r2,1
   22c5c:	d8c02015 	stw	r3,128(sp)
   22c60:	d8801f15 	stw	r2,124(sp)
   22c64:	010001c4 	movi	r4,7
   22c68:	20be0b0e 	bge	r4,r2,22498 <__alt_mem_MemoriaImagem1+0xfffc2498>
   22c6c:	d9002d17 	ldw	r4,180(sp)
   22c70:	d9801e04 	addi	r6,sp,120
   22c74:	b80b883a 	mov	r5,r23
   22c78:	00288f40 	call	288f4 <__sprint_r>
   22c7c:	103c861e 	bne	r2,zero,21e98 <__alt_mem_MemoriaImagem1+0xfffc1e98>
   22c80:	d8c02017 	ldw	r3,128(sp)
   22c84:	da000404 	addi	r8,sp,16
   22c88:	003e0406 	br	2249c <__alt_mem_MemoriaImagem1+0xfffc249c>
   22c8c:	d9002d17 	ldw	r4,180(sp)
   22c90:	d9801e04 	addi	r6,sp,120
   22c94:	b80b883a 	mov	r5,r23
   22c98:	00288f40 	call	288f4 <__sprint_r>
   22c9c:	103e3b26 	beq	r2,zero,2258c <__alt_mem_MemoriaImagem1+0xfffc258c>
   22ca0:	003c7d06 	br	21e98 <__alt_mem_MemoriaImagem1+0xfffc1e98>
   22ca4:	d9002d17 	ldw	r4,180(sp)
   22ca8:	d9801e04 	addi	r6,sp,120
   22cac:	b80b883a 	mov	r5,r23
   22cb0:	00288f40 	call	288f4 <__sprint_r>
   22cb4:	103c781e 	bne	r2,zero,21e98 <__alt_mem_MemoriaImagem1+0xfffc1e98>
   22cb8:	d8c02017 	ldw	r3,128(sp)
   22cbc:	da000404 	addi	r8,sp,16
   22cc0:	003de906 	br	22468 <__alt_mem_MemoriaImagem1+0xfffc2468>
   22cc4:	d9002d17 	ldw	r4,180(sp)
   22cc8:	d9801e04 	addi	r6,sp,120
   22ccc:	b80b883a 	mov	r5,r23
   22cd0:	00288f40 	call	288f4 <__sprint_r>
   22cd4:	103c701e 	bne	r2,zero,21e98 <__alt_mem_MemoriaImagem1+0xfffc1e98>
   22cd8:	d8c02017 	ldw	r3,128(sp)
   22cdc:	da000404 	addi	r8,sp,16
   22ce0:	003d9b06 	br	22350 <__alt_mem_MemoriaImagem1+0xfffc2350>
   22ce4:	d9002d17 	ldw	r4,180(sp)
   22ce8:	d9801e04 	addi	r6,sp,120
   22cec:	b80b883a 	mov	r5,r23
   22cf0:	00288f40 	call	288f4 <__sprint_r>
   22cf4:	103c681e 	bne	r2,zero,21e98 <__alt_mem_MemoriaImagem1+0xfffc1e98>
   22cf8:	d8c02017 	ldw	r3,128(sp)
   22cfc:	da000404 	addi	r8,sp,16
   22d00:	003da106 	br	22388 <__alt_mem_MemoriaImagem1+0xfffc2388>
   22d04:	d9402a17 	ldw	r5,168(sp)
   22d08:	d8002785 	stb	zero,158(sp)
   22d0c:	283f0616 	blt	r5,zero,22928 <__alt_mem_MemoriaImagem1+0xfffc2928>
   22d10:	00ffdfc4 	movi	r3,-129
   22d14:	9d84b03a 	or	r2,r19,r22
   22d18:	90e4703a 	and	r18,r18,r3
   22d1c:	103c3b26 	beq	r2,zero,21e0c <__alt_mem_MemoriaImagem1+0xfffc1e0c>
   22d20:	0039883a 	mov	fp,zero
   22d24:	003e5806 	br	22688 <__alt_mem_MemoriaImagem1+0xfffc2688>
   22d28:	9080040c 	andi	r2,r18,16
   22d2c:	1001b326 	beq	r2,zero,233fc <___vfprintf_internal_r+0x1974>
   22d30:	d8c02e17 	ldw	r3,184(sp)
   22d34:	d9002a17 	ldw	r4,168(sp)
   22d38:	d8002785 	stb	zero,158(sp)
   22d3c:	18800104 	addi	r2,r3,4
   22d40:	1cc00017 	ldw	r19,0(r3)
   22d44:	002d883a 	mov	r22,zero
   22d48:	2001b516 	blt	r4,zero,23420 <___vfprintf_internal_r+0x1998>
   22d4c:	00ffdfc4 	movi	r3,-129
   22d50:	d8802e15 	stw	r2,184(sp)
   22d54:	90e4703a 	and	r18,r18,r3
   22d58:	983d0526 	beq	r19,zero,22170 <__alt_mem_MemoriaImagem1+0xfffc2170>
   22d5c:	0039883a 	mov	fp,zero
   22d60:	003d0806 	br	22184 <__alt_mem_MemoriaImagem1+0xfffc2184>
   22d64:	dc402617 	ldw	r17,152(sp)
   22d68:	0441d30e 	bge	zero,r17,234b8 <___vfprintf_internal_r+0x1a30>
   22d6c:	dc403217 	ldw	r17,200(sp)
   22d70:	d8803317 	ldw	r2,204(sp)
   22d74:	1440010e 	bge	r2,r17,22d7c <___vfprintf_internal_r+0x12f4>
   22d78:	1023883a 	mov	r17,r2
   22d7c:	04400a0e 	bge	zero,r17,22da8 <___vfprintf_internal_r+0x1320>
   22d80:	d8801f17 	ldw	r2,124(sp)
   22d84:	1c47883a 	add	r3,r3,r17
   22d88:	44000015 	stw	r16,0(r8)
   22d8c:	10800044 	addi	r2,r2,1
   22d90:	44400115 	stw	r17,4(r8)
   22d94:	d8c02015 	stw	r3,128(sp)
   22d98:	d8801f15 	stw	r2,124(sp)
   22d9c:	010001c4 	movi	r4,7
   22da0:	20826516 	blt	r4,r2,23738 <___vfprintf_internal_r+0x1cb0>
   22da4:	42000204 	addi	r8,r8,8
   22da8:	88026116 	blt	r17,zero,23730 <___vfprintf_internal_r+0x1ca8>
   22dac:	d9003217 	ldw	r4,200(sp)
   22db0:	2463c83a 	sub	r17,r4,r17
   22db4:	04407b0e 	bge	zero,r17,22fa4 <___vfprintf_internal_r+0x151c>
   22db8:	05800404 	movi	r22,16
   22dbc:	d8801f17 	ldw	r2,124(sp)
   22dc0:	b4419d0e 	bge	r22,r17,23438 <___vfprintf_internal_r+0x19b0>
   22dc4:	010000f4 	movhi	r4,3
   22dc8:	2100ec84 	addi	r4,r4,946
   22dcc:	d9002c15 	stw	r4,176(sp)
   22dd0:	070001c4 	movi	fp,7
   22dd4:	dcc02d17 	ldw	r19,180(sp)
   22dd8:	00000306 	br	22de8 <___vfprintf_internal_r+0x1360>
   22ddc:	42000204 	addi	r8,r8,8
   22de0:	8c7ffc04 	addi	r17,r17,-16
   22de4:	b441970e 	bge	r22,r17,23444 <___vfprintf_internal_r+0x19bc>
   22de8:	18c00404 	addi	r3,r3,16
   22dec:	10800044 	addi	r2,r2,1
   22df0:	45000015 	stw	r20,0(r8)
   22df4:	45800115 	stw	r22,4(r8)
   22df8:	d8c02015 	stw	r3,128(sp)
   22dfc:	d8801f15 	stw	r2,124(sp)
   22e00:	e0bff60e 	bge	fp,r2,22ddc <__alt_mem_MemoriaImagem1+0xfffc2ddc>
   22e04:	d9801e04 	addi	r6,sp,120
   22e08:	b80b883a 	mov	r5,r23
   22e0c:	9809883a 	mov	r4,r19
   22e10:	00288f40 	call	288f4 <__sprint_r>
   22e14:	103c201e 	bne	r2,zero,21e98 <__alt_mem_MemoriaImagem1+0xfffc1e98>
   22e18:	d8c02017 	ldw	r3,128(sp)
   22e1c:	d8801f17 	ldw	r2,124(sp)
   22e20:	da000404 	addi	r8,sp,16
   22e24:	003fee06 	br	22de0 <__alt_mem_MemoriaImagem1+0xfffc2de0>
   22e28:	d9002d17 	ldw	r4,180(sp)
   22e2c:	d9801e04 	addi	r6,sp,120
   22e30:	b80b883a 	mov	r5,r23
   22e34:	00288f40 	call	288f4 <__sprint_r>
   22e38:	103c171e 	bne	r2,zero,21e98 <__alt_mem_MemoriaImagem1+0xfffc1e98>
   22e3c:	d8c02017 	ldw	r3,128(sp)
   22e40:	df002787 	ldb	fp,158(sp)
   22e44:	da000404 	addi	r8,sp,16
   22e48:	003d3406 	br	2231c <__alt_mem_MemoriaImagem1+0xfffc231c>
   22e4c:	9080040c 	andi	r2,r18,16
   22e50:	10016126 	beq	r2,zero,233d8 <___vfprintf_internal_r+0x1950>
   22e54:	d9402e17 	ldw	r5,184(sp)
   22e58:	2cc00017 	ldw	r19,0(r5)
   22e5c:	29400104 	addi	r5,r5,4
   22e60:	d9402e15 	stw	r5,184(sp)
   22e64:	982dd7fa 	srai	r22,r19,31
   22e68:	b005883a 	mov	r2,r22
   22e6c:	003c5a06 	br	21fd8 <__alt_mem_MemoriaImagem1+0xfffc1fd8>
   22e70:	9080040c 	andi	r2,r18,16
   22e74:	10003526 	beq	r2,zero,22f4c <___vfprintf_internal_r+0x14c4>
   22e78:	d8c02e17 	ldw	r3,184(sp)
   22e7c:	d9002a17 	ldw	r4,168(sp)
   22e80:	d8002785 	stb	zero,158(sp)
   22e84:	18800104 	addi	r2,r3,4
   22e88:	1cc00017 	ldw	r19,0(r3)
   22e8c:	002d883a 	mov	r22,zero
   22e90:	20003716 	blt	r4,zero,22f70 <___vfprintf_internal_r+0x14e8>
   22e94:	00ffdfc4 	movi	r3,-129
   22e98:	d8802e15 	stw	r2,184(sp)
   22e9c:	90e4703a 	and	r18,r18,r3
   22ea0:	0039883a 	mov	fp,zero
   22ea4:	983dd426 	beq	r19,zero,225f8 <__alt_mem_MemoriaImagem1+0xfffc25f8>
   22ea8:	00800244 	movi	r2,9
   22eac:	14fc5336 	bltu	r2,r19,21ffc <__alt_mem_MemoriaImagem1+0xfffc1ffc>
   22eb0:	d8c02817 	ldw	r3,160(sp)
   22eb4:	dc001dc4 	addi	r16,sp,119
   22eb8:	9cc00c04 	addi	r19,r19,48
   22ebc:	1c07c83a 	sub	r3,r3,r16
   22ec0:	dcc01dc5 	stb	r19,119(sp)
   22ec4:	d8c02b15 	stw	r3,172(sp)
   22ec8:	003cc606 	br	221e4 <__alt_mem_MemoriaImagem1+0xfffc21e4>
   22ecc:	d8803317 	ldw	r2,204(sp)
   22ed0:	143fffc4 	addi	r16,r2,-1
   22ed4:	043f4d0e 	bge	zero,r16,22c0c <__alt_mem_MemoriaImagem1+0xfffc2c0c>
   22ed8:	07000404 	movi	fp,16
   22edc:	e400810e 	bge	fp,r16,230e4 <___vfprintf_internal_r+0x165c>
   22ee0:	014000f4 	movhi	r5,3
   22ee4:	2940ec84 	addi	r5,r5,946
   22ee8:	d9402c15 	stw	r5,176(sp)
   22eec:	01c001c4 	movi	r7,7
   22ef0:	dcc02d17 	ldw	r19,180(sp)
   22ef4:	00000306 	br	22f04 <___vfprintf_internal_r+0x147c>
   22ef8:	b5800204 	addi	r22,r22,8
   22efc:	843ffc04 	addi	r16,r16,-16
   22f00:	e4007b0e 	bge	fp,r16,230f0 <___vfprintf_internal_r+0x1668>
   22f04:	18c00404 	addi	r3,r3,16
   22f08:	8c400044 	addi	r17,r17,1
   22f0c:	b5000015 	stw	r20,0(r22)
   22f10:	b7000115 	stw	fp,4(r22)
   22f14:	d8c02015 	stw	r3,128(sp)
   22f18:	dc401f15 	stw	r17,124(sp)
   22f1c:	3c7ff60e 	bge	r7,r17,22ef8 <__alt_mem_MemoriaImagem1+0xfffc2ef8>
   22f20:	d9801e04 	addi	r6,sp,120
   22f24:	b80b883a 	mov	r5,r23
   22f28:	9809883a 	mov	r4,r19
   22f2c:	d9c03c15 	stw	r7,240(sp)
   22f30:	00288f40 	call	288f4 <__sprint_r>
   22f34:	d9c03c17 	ldw	r7,240(sp)
   22f38:	103bd71e 	bne	r2,zero,21e98 <__alt_mem_MemoriaImagem1+0xfffc1e98>
   22f3c:	d8c02017 	ldw	r3,128(sp)
   22f40:	dc401f17 	ldw	r17,124(sp)
   22f44:	dd800404 	addi	r22,sp,16
   22f48:	003fec06 	br	22efc <__alt_mem_MemoriaImagem1+0xfffc2efc>
   22f4c:	9080100c 	andi	r2,r18,64
   22f50:	d8002785 	stb	zero,158(sp)
   22f54:	10010e26 	beq	r2,zero,23390 <___vfprintf_internal_r+0x1908>
   22f58:	d9402e17 	ldw	r5,184(sp)
   22f5c:	d8c02a17 	ldw	r3,168(sp)
   22f60:	002d883a 	mov	r22,zero
   22f64:	28800104 	addi	r2,r5,4
   22f68:	2cc0000b 	ldhu	r19,0(r5)
   22f6c:	183fc90e 	bge	r3,zero,22e94 <__alt_mem_MemoriaImagem1+0xfffc2e94>
   22f70:	d8802e15 	stw	r2,184(sp)
   22f74:	0039883a 	mov	fp,zero
   22f78:	9d84b03a 	or	r2,r19,r22
   22f7c:	103c1e1e 	bne	r2,zero,21ff8 <__alt_mem_MemoriaImagem1+0xfffc1ff8>
   22f80:	00800044 	movi	r2,1
   22f84:	003e6c06 	br	22938 <__alt_mem_MemoriaImagem1+0xfffc2938>
   22f88:	d9002d17 	ldw	r4,180(sp)
   22f8c:	d9801e04 	addi	r6,sp,120
   22f90:	b80b883a 	mov	r5,r23
   22f94:	00288f40 	call	288f4 <__sprint_r>
   22f98:	103bbf1e 	bne	r2,zero,21e98 <__alt_mem_MemoriaImagem1+0xfffc1e98>
   22f9c:	d8c02017 	ldw	r3,128(sp)
   22fa0:	da000404 	addi	r8,sp,16
   22fa4:	d9003217 	ldw	r4,200(sp)
   22fa8:	d8802617 	ldw	r2,152(sp)
   22fac:	d9403317 	ldw	r5,204(sp)
   22fb0:	8123883a 	add	r17,r16,r4
   22fb4:	11400216 	blt	r2,r5,22fc0 <___vfprintf_internal_r+0x1538>
   22fb8:	9100004c 	andi	r4,r18,1
   22fbc:	20000d26 	beq	r4,zero,22ff4 <___vfprintf_internal_r+0x156c>
   22fc0:	d9003717 	ldw	r4,220(sp)
   22fc4:	d9403417 	ldw	r5,208(sp)
   22fc8:	1907883a 	add	r3,r3,r4
   22fcc:	d9001f17 	ldw	r4,124(sp)
   22fd0:	41400015 	stw	r5,0(r8)
   22fd4:	d9403717 	ldw	r5,220(sp)
   22fd8:	21000044 	addi	r4,r4,1
   22fdc:	d8c02015 	stw	r3,128(sp)
   22fe0:	41400115 	stw	r5,4(r8)
   22fe4:	d9001f15 	stw	r4,124(sp)
   22fe8:	014001c4 	movi	r5,7
   22fec:	2901e816 	blt	r5,r4,23790 <___vfprintf_internal_r+0x1d08>
   22ff0:	42000204 	addi	r8,r8,8
   22ff4:	d9003317 	ldw	r4,204(sp)
   22ff8:	8121883a 	add	r16,r16,r4
   22ffc:	2085c83a 	sub	r2,r4,r2
   23000:	8461c83a 	sub	r16,r16,r17
   23004:	1400010e 	bge	r2,r16,2300c <___vfprintf_internal_r+0x1584>
   23008:	1021883a 	mov	r16,r2
   2300c:	04000a0e 	bge	zero,r16,23038 <___vfprintf_internal_r+0x15b0>
   23010:	d9001f17 	ldw	r4,124(sp)
   23014:	1c07883a 	add	r3,r3,r16
   23018:	44400015 	stw	r17,0(r8)
   2301c:	21000044 	addi	r4,r4,1
   23020:	44000115 	stw	r16,4(r8)
   23024:	d8c02015 	stw	r3,128(sp)
   23028:	d9001f15 	stw	r4,124(sp)
   2302c:	014001c4 	movi	r5,7
   23030:	2901fb16 	blt	r5,r4,23820 <___vfprintf_internal_r+0x1d98>
   23034:	42000204 	addi	r8,r8,8
   23038:	8001f716 	blt	r16,zero,23818 <___vfprintf_internal_r+0x1d90>
   2303c:	1421c83a 	sub	r16,r2,r16
   23040:	043d160e 	bge	zero,r16,2249c <__alt_mem_MemoriaImagem1+0xfffc249c>
   23044:	04400404 	movi	r17,16
   23048:	d8801f17 	ldw	r2,124(sp)
   2304c:	8c3efb0e 	bge	r17,r16,22c3c <__alt_mem_MemoriaImagem1+0xfffc2c3c>
   23050:	014000f4 	movhi	r5,3
   23054:	2940ec84 	addi	r5,r5,946
   23058:	d9402c15 	stw	r5,176(sp)
   2305c:	058001c4 	movi	r22,7
   23060:	dcc02d17 	ldw	r19,180(sp)
   23064:	00000306 	br	23074 <___vfprintf_internal_r+0x15ec>
   23068:	42000204 	addi	r8,r8,8
   2306c:	843ffc04 	addi	r16,r16,-16
   23070:	8c3ef50e 	bge	r17,r16,22c48 <__alt_mem_MemoriaImagem1+0xfffc2c48>
   23074:	18c00404 	addi	r3,r3,16
   23078:	10800044 	addi	r2,r2,1
   2307c:	45000015 	stw	r20,0(r8)
   23080:	44400115 	stw	r17,4(r8)
   23084:	d8c02015 	stw	r3,128(sp)
   23088:	d8801f15 	stw	r2,124(sp)
   2308c:	b0bff60e 	bge	r22,r2,23068 <__alt_mem_MemoriaImagem1+0xfffc3068>
   23090:	d9801e04 	addi	r6,sp,120
   23094:	b80b883a 	mov	r5,r23
   23098:	9809883a 	mov	r4,r19
   2309c:	00288f40 	call	288f4 <__sprint_r>
   230a0:	103b7d1e 	bne	r2,zero,21e98 <__alt_mem_MemoriaImagem1+0xfffc1e98>
   230a4:	d8c02017 	ldw	r3,128(sp)
   230a8:	d8801f17 	ldw	r2,124(sp)
   230ac:	da000404 	addi	r8,sp,16
   230b0:	003fee06 	br	2306c <__alt_mem_MemoriaImagem1+0xfffc306c>
   230b4:	9088703a 	and	r4,r18,r2
   230b8:	203eab1e 	bne	r4,zero,22b68 <__alt_mem_MemoriaImagem1+0xfffc2b68>
   230bc:	dc401f17 	ldw	r17,124(sp)
   230c0:	40800115 	stw	r2,4(r8)
   230c4:	44000015 	stw	r16,0(r8)
   230c8:	8c400044 	addi	r17,r17,1
   230cc:	d8c02015 	stw	r3,128(sp)
   230d0:	dc401f15 	stw	r17,124(sp)
   230d4:	008001c4 	movi	r2,7
   230d8:	14400e16 	blt	r2,r17,23114 <___vfprintf_internal_r+0x168c>
   230dc:	45800204 	addi	r22,r8,8
   230e0:	003eca06 	br	22c0c <__alt_mem_MemoriaImagem1+0xfffc2c0c>
   230e4:	010000f4 	movhi	r4,3
   230e8:	2100ec84 	addi	r4,r4,946
   230ec:	d9002c15 	stw	r4,176(sp)
   230f0:	d8802c17 	ldw	r2,176(sp)
   230f4:	1c07883a 	add	r3,r3,r16
   230f8:	8c400044 	addi	r17,r17,1
   230fc:	b0800015 	stw	r2,0(r22)
   23100:	b4000115 	stw	r16,4(r22)
   23104:	d8c02015 	stw	r3,128(sp)
   23108:	dc401f15 	stw	r17,124(sp)
   2310c:	008001c4 	movi	r2,7
   23110:	147ebd0e 	bge	r2,r17,22c08 <__alt_mem_MemoriaImagem1+0xfffc2c08>
   23114:	d9002d17 	ldw	r4,180(sp)
   23118:	d9801e04 	addi	r6,sp,120
   2311c:	b80b883a 	mov	r5,r23
   23120:	00288f40 	call	288f4 <__sprint_r>
   23124:	103b5c1e 	bne	r2,zero,21e98 <__alt_mem_MemoriaImagem1+0xfffc1e98>
   23128:	d8c02017 	ldw	r3,128(sp)
   2312c:	dc401f17 	ldw	r17,124(sp)
   23130:	dd800404 	addi	r22,sp,16
   23134:	003eb506 	br	22c0c <__alt_mem_MemoriaImagem1+0xfffc2c0c>
   23138:	d9002d17 	ldw	r4,180(sp)
   2313c:	d9801e04 	addi	r6,sp,120
   23140:	b80b883a 	mov	r5,r23
   23144:	00288f40 	call	288f4 <__sprint_r>
   23148:	103b531e 	bne	r2,zero,21e98 <__alt_mem_MemoriaImagem1+0xfffc1e98>
   2314c:	d8c02017 	ldw	r3,128(sp)
   23150:	dc401f17 	ldw	r17,124(sp)
   23154:	da000404 	addi	r8,sp,16
   23158:	003e8d06 	br	22b90 <__alt_mem_MemoriaImagem1+0xfffc2b90>
   2315c:	d9002d17 	ldw	r4,180(sp)
   23160:	d9801e04 	addi	r6,sp,120
   23164:	b80b883a 	mov	r5,r23
   23168:	00288f40 	call	288f4 <__sprint_r>
   2316c:	103b4a1e 	bne	r2,zero,21e98 <__alt_mem_MemoriaImagem1+0xfffc1e98>
   23170:	d8c02017 	ldw	r3,128(sp)
   23174:	dc401f17 	ldw	r17,124(sp)
   23178:	dd800404 	addi	r22,sp,16
   2317c:	003e8f06 	br	22bbc <__alt_mem_MemoriaImagem1+0xfffc2bbc>
   23180:	0027883a 	mov	r19,zero
   23184:	003f4a06 	br	22eb0 <__alt_mem_MemoriaImagem1+0xfffc2eb0>
   23188:	d9002d17 	ldw	r4,180(sp)
   2318c:	d9801e04 	addi	r6,sp,120
   23190:	b80b883a 	mov	r5,r23
   23194:	00288f40 	call	288f4 <__sprint_r>
   23198:	103b3f1e 	bne	r2,zero,21e98 <__alt_mem_MemoriaImagem1+0xfffc1e98>
   2319c:	d8c02017 	ldw	r3,128(sp)
   231a0:	da000404 	addi	r8,sp,16
   231a4:	003c7b06 	br	22394 <__alt_mem_MemoriaImagem1+0xfffc2394>
   231a8:	d9402a17 	ldw	r5,168(sp)
   231ac:	04e7c83a 	sub	r19,zero,r19
   231b0:	07000b44 	movi	fp,45
   231b4:	9804c03a 	cmpne	r2,r19,zero
   231b8:	05adc83a 	sub	r22,zero,r22
   231bc:	df002785 	stb	fp,158(sp)
   231c0:	b0adc83a 	sub	r22,r22,r2
   231c4:	28017b16 	blt	r5,zero,237b4 <___vfprintf_internal_r+0x1d2c>
   231c8:	00bfdfc4 	movi	r2,-129
   231cc:	90a4703a 	and	r18,r18,r2
   231d0:	003b8906 	br	21ff8 <__alt_mem_MemoriaImagem1+0xfffc1ff8>
   231d4:	d9003617 	ldw	r4,216(sp)
   231d8:	d9403817 	ldw	r5,224(sp)
   231dc:	da003d15 	stw	r8,244(sp)
   231e0:	00286100 	call	28610 <__fpclassifyd>
   231e4:	da003d17 	ldw	r8,244(sp)
   231e8:	1000f026 	beq	r2,zero,235ac <___vfprintf_internal_r+0x1b24>
   231ec:	d9002a17 	ldw	r4,168(sp)
   231f0:	05bff7c4 	movi	r22,-33
   231f4:	00bfffc4 	movi	r2,-1
   231f8:	8dac703a 	and	r22,r17,r22
   231fc:	20820026 	beq	r4,r2,23a00 <___vfprintf_internal_r+0x1f78>
   23200:	008011c4 	movi	r2,71
   23204:	b081f726 	beq	r22,r2,239e4 <___vfprintf_internal_r+0x1f5c>
   23208:	d9003817 	ldw	r4,224(sp)
   2320c:	90c04014 	ori	r3,r18,256
   23210:	d8c02c15 	stw	r3,176(sp)
   23214:	20021516 	blt	r4,zero,23a6c <___vfprintf_internal_r+0x1fe4>
   23218:	dcc03817 	ldw	r19,224(sp)
   2321c:	d8002905 	stb	zero,164(sp)
   23220:	00801984 	movi	r2,102
   23224:	8881f926 	beq	r17,r2,23a0c <___vfprintf_internal_r+0x1f84>
   23228:	00801184 	movi	r2,70
   2322c:	88821c26 	beq	r17,r2,23aa0 <___vfprintf_internal_r+0x2018>
   23230:	00801144 	movi	r2,69
   23234:	b081ef26 	beq	r22,r2,239f4 <___vfprintf_internal_r+0x1f6c>
   23238:	d8c02a17 	ldw	r3,168(sp)
   2323c:	d8802104 	addi	r2,sp,132
   23240:	d8800315 	stw	r2,12(sp)
   23244:	d9403617 	ldw	r5,216(sp)
   23248:	d8802504 	addi	r2,sp,148
   2324c:	d9002d17 	ldw	r4,180(sp)
   23250:	d8800215 	stw	r2,8(sp)
   23254:	d8802604 	addi	r2,sp,152
   23258:	d8c00015 	stw	r3,0(sp)
   2325c:	d8800115 	stw	r2,4(sp)
   23260:	01c00084 	movi	r7,2
   23264:	980d883a 	mov	r6,r19
   23268:	d8c03c15 	stw	r3,240(sp)
   2326c:	da003d15 	stw	r8,244(sp)
   23270:	002426c0 	call	2426c <_dtoa_r>
   23274:	1021883a 	mov	r16,r2
   23278:	008019c4 	movi	r2,103
   2327c:	d8c03c17 	ldw	r3,240(sp)
   23280:	da003d17 	ldw	r8,244(sp)
   23284:	88817126 	beq	r17,r2,2384c <___vfprintf_internal_r+0x1dc4>
   23288:	008011c4 	movi	r2,71
   2328c:	88829126 	beq	r17,r2,23cd4 <___vfprintf_internal_r+0x224c>
   23290:	80f9883a 	add	fp,r16,r3
   23294:	d9003617 	ldw	r4,216(sp)
   23298:	000d883a 	mov	r6,zero
   2329c:	000f883a 	mov	r7,zero
   232a0:	980b883a 	mov	r5,r19
   232a4:	da003d15 	stw	r8,244(sp)
   232a8:	002c6300 	call	2c630 <__eqdf2>
   232ac:	da003d17 	ldw	r8,244(sp)
   232b0:	10018d26 	beq	r2,zero,238e8 <___vfprintf_internal_r+0x1e60>
   232b4:	d8802117 	ldw	r2,132(sp)
   232b8:	1700062e 	bgeu	r2,fp,232d4 <___vfprintf_internal_r+0x184c>
   232bc:	01000c04 	movi	r4,48
   232c0:	10c00044 	addi	r3,r2,1
   232c4:	d8c02115 	stw	r3,132(sp)
   232c8:	11000005 	stb	r4,0(r2)
   232cc:	d8802117 	ldw	r2,132(sp)
   232d0:	173ffb36 	bltu	r2,fp,232c0 <__alt_mem_MemoriaImagem1+0xfffc32c0>
   232d4:	1405c83a 	sub	r2,r2,r16
   232d8:	d8803315 	stw	r2,204(sp)
   232dc:	008011c4 	movi	r2,71
   232e0:	b0817626 	beq	r22,r2,238bc <___vfprintf_internal_r+0x1e34>
   232e4:	00801944 	movi	r2,101
   232e8:	1442800e 	bge	r2,r17,23cec <___vfprintf_internal_r+0x2264>
   232ec:	d8c02617 	ldw	r3,152(sp)
   232f0:	00801984 	movi	r2,102
   232f4:	d8c03215 	stw	r3,200(sp)
   232f8:	8881fe26 	beq	r17,r2,23af4 <___vfprintf_internal_r+0x206c>
   232fc:	d8c03217 	ldw	r3,200(sp)
   23300:	d9003317 	ldw	r4,204(sp)
   23304:	1901dd16 	blt	r3,r4,23a7c <___vfprintf_internal_r+0x1ff4>
   23308:	9480004c 	andi	r18,r18,1
   2330c:	90022b1e 	bne	r18,zero,23bbc <___vfprintf_internal_r+0x2134>
   23310:	1805883a 	mov	r2,r3
   23314:	18028316 	blt	r3,zero,23d24 <___vfprintf_internal_r+0x229c>
   23318:	d8c03217 	ldw	r3,200(sp)
   2331c:	044019c4 	movi	r17,103
   23320:	d8c02b15 	stw	r3,172(sp)
   23324:	df002907 	ldb	fp,164(sp)
   23328:	e001531e 	bne	fp,zero,23878 <___vfprintf_internal_r+0x1df0>
   2332c:	df002783 	ldbu	fp,158(sp)
   23330:	d8802915 	stw	r2,164(sp)
   23334:	dc802c17 	ldw	r18,176(sp)
   23338:	d8002a15 	stw	zero,168(sp)
   2333c:	003baf06 	br	221fc <__alt_mem_MemoriaImagem1+0xfffc21fc>
   23340:	d8c02e17 	ldw	r3,184(sp)
   23344:	d9002e17 	ldw	r4,184(sp)
   23348:	d9402e17 	ldw	r5,184(sp)
   2334c:	18c00017 	ldw	r3,0(r3)
   23350:	21000117 	ldw	r4,4(r4)
   23354:	29400204 	addi	r5,r5,8
   23358:	d8c03615 	stw	r3,216(sp)
   2335c:	d9003815 	stw	r4,224(sp)
   23360:	d9402e15 	stw	r5,184(sp)
   23364:	003b5006 	br	220a8 <__alt_mem_MemoriaImagem1+0xfffc20a8>
   23368:	ac400007 	ldb	r17,0(r21)
   2336c:	003a2806 	br	21c10 <__alt_mem_MemoriaImagem1+0xfffc1c10>
   23370:	9080100c 	andi	r2,r18,64
   23374:	1000a826 	beq	r2,zero,23618 <___vfprintf_internal_r+0x1b90>
   23378:	d8c02e17 	ldw	r3,184(sp)
   2337c:	002d883a 	mov	r22,zero
   23380:	1cc0000b 	ldhu	r19,0(r3)
   23384:	18c00104 	addi	r3,r3,4
   23388:	d8c02e15 	stw	r3,184(sp)
   2338c:	003caf06 	br	2264c <__alt_mem_MemoriaImagem1+0xfffc264c>
   23390:	d9002e17 	ldw	r4,184(sp)
   23394:	d9402a17 	ldw	r5,168(sp)
   23398:	002d883a 	mov	r22,zero
   2339c:	20800104 	addi	r2,r4,4
   233a0:	24c00017 	ldw	r19,0(r4)
   233a4:	283ebb0e 	bge	r5,zero,22e94 <__alt_mem_MemoriaImagem1+0xfffc2e94>
   233a8:	003ef106 	br	22f70 <__alt_mem_MemoriaImagem1+0xfffc2f70>
   233ac:	9080040c 	andi	r2,r18,16
   233b0:	1000921e 	bne	r2,zero,235fc <___vfprintf_internal_r+0x1b74>
   233b4:	9480100c 	andi	r18,r18,64
   233b8:	90013926 	beq	r18,zero,238a0 <___vfprintf_internal_r+0x1e18>
   233bc:	d9402e17 	ldw	r5,184(sp)
   233c0:	d8c02f17 	ldw	r3,188(sp)
   233c4:	28800017 	ldw	r2,0(r5)
   233c8:	29400104 	addi	r5,r5,4
   233cc:	d9402e15 	stw	r5,184(sp)
   233d0:	10c0000d 	sth	r3,0(r2)
   233d4:	0039e406 	br	21b68 <__alt_mem_MemoriaImagem1+0xfffc1b68>
   233d8:	9080100c 	andi	r2,r18,64
   233dc:	10008026 	beq	r2,zero,235e0 <___vfprintf_internal_r+0x1b58>
   233e0:	d8802e17 	ldw	r2,184(sp)
   233e4:	14c0000f 	ldh	r19,0(r2)
   233e8:	10800104 	addi	r2,r2,4
   233ec:	d8802e15 	stw	r2,184(sp)
   233f0:	982dd7fa 	srai	r22,r19,31
   233f4:	b005883a 	mov	r2,r22
   233f8:	003af706 	br	21fd8 <__alt_mem_MemoriaImagem1+0xfffc1fd8>
   233fc:	9080100c 	andi	r2,r18,64
   23400:	d8002785 	stb	zero,158(sp)
   23404:	10008a1e 	bne	r2,zero,23630 <___vfprintf_internal_r+0x1ba8>
   23408:	d9002e17 	ldw	r4,184(sp)
   2340c:	d9402a17 	ldw	r5,168(sp)
   23410:	002d883a 	mov	r22,zero
   23414:	20800104 	addi	r2,r4,4
   23418:	24c00017 	ldw	r19,0(r4)
   2341c:	283e4b0e 	bge	r5,zero,22d4c <__alt_mem_MemoriaImagem1+0xfffc2d4c>
   23420:	9d86b03a 	or	r3,r19,r22
   23424:	d8802e15 	stw	r2,184(sp)
   23428:	183e4c1e 	bne	r3,zero,22d5c <__alt_mem_MemoriaImagem1+0xfffc2d5c>
   2342c:	0039883a 	mov	fp,zero
   23430:	0005883a 	mov	r2,zero
   23434:	003d4006 	br	22938 <__alt_mem_MemoriaImagem1+0xfffc2938>
   23438:	014000f4 	movhi	r5,3
   2343c:	2940ec84 	addi	r5,r5,946
   23440:	d9402c15 	stw	r5,176(sp)
   23444:	d9402c17 	ldw	r5,176(sp)
   23448:	1c47883a 	add	r3,r3,r17
   2344c:	10800044 	addi	r2,r2,1
   23450:	41400015 	stw	r5,0(r8)
   23454:	44400115 	stw	r17,4(r8)
   23458:	d8c02015 	stw	r3,128(sp)
   2345c:	d8801f15 	stw	r2,124(sp)
   23460:	010001c4 	movi	r4,7
   23464:	20bec816 	blt	r4,r2,22f88 <__alt_mem_MemoriaImagem1+0xfffc2f88>
   23468:	42000204 	addi	r8,r8,8
   2346c:	003ecd06 	br	22fa4 <__alt_mem_MemoriaImagem1+0xfffc2fa4>
   23470:	d9002a17 	ldw	r4,168(sp)
   23474:	d8002785 	stb	zero,158(sp)
   23478:	203d2d16 	blt	r4,zero,22930 <__alt_mem_MemoriaImagem1+0xfffc2930>
   2347c:	00bfdfc4 	movi	r2,-129
   23480:	90a4703a 	and	r18,r18,r2
   23484:	003a6106 	br	21e0c <__alt_mem_MemoriaImagem1+0xfffc1e0c>
   23488:	010000f4 	movhi	r4,3
   2348c:	2100ec84 	addi	r4,r4,946
   23490:	d9002c15 	stw	r4,176(sp)
   23494:	003bea06 	br	22440 <__alt_mem_MemoriaImagem1+0xfffc2440>
   23498:	d9002d17 	ldw	r4,180(sp)
   2349c:	d9801e04 	addi	r6,sp,120
   234a0:	b80b883a 	mov	r5,r23
   234a4:	00288f40 	call	288f4 <__sprint_r>
   234a8:	103a7b1e 	bne	r2,zero,21e98 <__alt_mem_MemoriaImagem1+0xfffc1e98>
   234ac:	d8c02017 	ldw	r3,128(sp)
   234b0:	da000404 	addi	r8,sp,16
   234b4:	003d4106 	br	229bc <__alt_mem_MemoriaImagem1+0xfffc29bc>
   234b8:	d8801f17 	ldw	r2,124(sp)
   234bc:	014000f4 	movhi	r5,3
   234c0:	01000044 	movi	r4,1
   234c4:	18c00044 	addi	r3,r3,1
   234c8:	10800044 	addi	r2,r2,1
   234cc:	2940ec04 	addi	r5,r5,944
   234d0:	41000115 	stw	r4,4(r8)
   234d4:	41400015 	stw	r5,0(r8)
   234d8:	d8c02015 	stw	r3,128(sp)
   234dc:	d8801f15 	stw	r2,124(sp)
   234e0:	010001c4 	movi	r4,7
   234e4:	20805c16 	blt	r4,r2,23658 <___vfprintf_internal_r+0x1bd0>
   234e8:	42000204 	addi	r8,r8,8
   234ec:	8800041e 	bne	r17,zero,23500 <___vfprintf_internal_r+0x1a78>
   234f0:	d8803317 	ldw	r2,204(sp)
   234f4:	1000021e 	bne	r2,zero,23500 <___vfprintf_internal_r+0x1a78>
   234f8:	9080004c 	andi	r2,r18,1
   234fc:	103be726 	beq	r2,zero,2249c <__alt_mem_MemoriaImagem1+0xfffc249c>
   23500:	d9003717 	ldw	r4,220(sp)
   23504:	d8801f17 	ldw	r2,124(sp)
   23508:	d9403417 	ldw	r5,208(sp)
   2350c:	20c7883a 	add	r3,r4,r3
   23510:	10800044 	addi	r2,r2,1
   23514:	41000115 	stw	r4,4(r8)
   23518:	41400015 	stw	r5,0(r8)
   2351c:	d8c02015 	stw	r3,128(sp)
   23520:	d8801f15 	stw	r2,124(sp)
   23524:	010001c4 	movi	r4,7
   23528:	20812116 	blt	r4,r2,239b0 <___vfprintf_internal_r+0x1f28>
   2352c:	42000204 	addi	r8,r8,8
   23530:	0463c83a 	sub	r17,zero,r17
   23534:	0440730e 	bge	zero,r17,23704 <___vfprintf_internal_r+0x1c7c>
   23538:	05800404 	movi	r22,16
   2353c:	b440860e 	bge	r22,r17,23758 <___vfprintf_internal_r+0x1cd0>
   23540:	014000f4 	movhi	r5,3
   23544:	2940ec84 	addi	r5,r5,946
   23548:	d9402c15 	stw	r5,176(sp)
   2354c:	070001c4 	movi	fp,7
   23550:	dcc02d17 	ldw	r19,180(sp)
   23554:	00000306 	br	23564 <___vfprintf_internal_r+0x1adc>
   23558:	42000204 	addi	r8,r8,8
   2355c:	8c7ffc04 	addi	r17,r17,-16
   23560:	b440800e 	bge	r22,r17,23764 <___vfprintf_internal_r+0x1cdc>
   23564:	18c00404 	addi	r3,r3,16
   23568:	10800044 	addi	r2,r2,1
   2356c:	45000015 	stw	r20,0(r8)
   23570:	45800115 	stw	r22,4(r8)
   23574:	d8c02015 	stw	r3,128(sp)
   23578:	d8801f15 	stw	r2,124(sp)
   2357c:	e0bff60e 	bge	fp,r2,23558 <__alt_mem_MemoriaImagem1+0xfffc3558>
   23580:	d9801e04 	addi	r6,sp,120
   23584:	b80b883a 	mov	r5,r23
   23588:	9809883a 	mov	r4,r19
   2358c:	00288f40 	call	288f4 <__sprint_r>
   23590:	103a411e 	bne	r2,zero,21e98 <__alt_mem_MemoriaImagem1+0xfffc1e98>
   23594:	d8c02017 	ldw	r3,128(sp)
   23598:	d8801f17 	ldw	r2,124(sp)
   2359c:	da000404 	addi	r8,sp,16
   235a0:	003fee06 	br	2355c <__alt_mem_MemoriaImagem1+0xfffc355c>
   235a4:	00bfffc4 	movi	r2,-1
   235a8:	003a3f06 	br	21ea8 <__alt_mem_MemoriaImagem1+0xfffc1ea8>
   235ac:	008011c4 	movi	r2,71
   235b0:	1440b816 	blt	r2,r17,23894 <___vfprintf_internal_r+0x1e0c>
   235b4:	040000f4 	movhi	r16,3
   235b8:	8400de04 	addi	r16,r16,888
   235bc:	00c000c4 	movi	r3,3
   235c0:	00bfdfc4 	movi	r2,-129
   235c4:	d8c02915 	stw	r3,164(sp)
   235c8:	90a4703a 	and	r18,r18,r2
   235cc:	df002783 	ldbu	fp,158(sp)
   235d0:	d8c02b15 	stw	r3,172(sp)
   235d4:	d8002a15 	stw	zero,168(sp)
   235d8:	d8003215 	stw	zero,200(sp)
   235dc:	003b0706 	br	221fc <__alt_mem_MemoriaImagem1+0xfffc21fc>
   235e0:	d8c02e17 	ldw	r3,184(sp)
   235e4:	1cc00017 	ldw	r19,0(r3)
   235e8:	18c00104 	addi	r3,r3,4
   235ec:	d8c02e15 	stw	r3,184(sp)
   235f0:	982dd7fa 	srai	r22,r19,31
   235f4:	b005883a 	mov	r2,r22
   235f8:	003a7706 	br	21fd8 <__alt_mem_MemoriaImagem1+0xfffc1fd8>
   235fc:	d8c02e17 	ldw	r3,184(sp)
   23600:	d9002f17 	ldw	r4,188(sp)
   23604:	18800017 	ldw	r2,0(r3)
   23608:	18c00104 	addi	r3,r3,4
   2360c:	d8c02e15 	stw	r3,184(sp)
   23610:	11000015 	stw	r4,0(r2)
   23614:	00395406 	br	21b68 <__alt_mem_MemoriaImagem1+0xfffc1b68>
   23618:	d9002e17 	ldw	r4,184(sp)
   2361c:	002d883a 	mov	r22,zero
   23620:	24c00017 	ldw	r19,0(r4)
   23624:	21000104 	addi	r4,r4,4
   23628:	d9002e15 	stw	r4,184(sp)
   2362c:	003c0706 	br	2264c <__alt_mem_MemoriaImagem1+0xfffc264c>
   23630:	d9402e17 	ldw	r5,184(sp)
   23634:	d8c02a17 	ldw	r3,168(sp)
   23638:	002d883a 	mov	r22,zero
   2363c:	28800104 	addi	r2,r5,4
   23640:	2cc0000b 	ldhu	r19,0(r5)
   23644:	183dc10e 	bge	r3,zero,22d4c <__alt_mem_MemoriaImagem1+0xfffc2d4c>
   23648:	003f7506 	br	23420 <__alt_mem_MemoriaImagem1+0xfffc3420>
   2364c:	040000f4 	movhi	r16,3
   23650:	8400dc04 	addi	r16,r16,880
   23654:	003aa706 	br	220f4 <__alt_mem_MemoriaImagem1+0xfffc20f4>
   23658:	d9002d17 	ldw	r4,180(sp)
   2365c:	d9801e04 	addi	r6,sp,120
   23660:	b80b883a 	mov	r5,r23
   23664:	00288f40 	call	288f4 <__sprint_r>
   23668:	103a0b1e 	bne	r2,zero,21e98 <__alt_mem_MemoriaImagem1+0xfffc1e98>
   2366c:	dc402617 	ldw	r17,152(sp)
   23670:	d8c02017 	ldw	r3,128(sp)
   23674:	da000404 	addi	r8,sp,16
   23678:	003f9c06 	br	234ec <__alt_mem_MemoriaImagem1+0xfffc34ec>
   2367c:	ac400043 	ldbu	r17,1(r21)
   23680:	84000814 	ori	r16,r16,32
   23684:	ad400044 	addi	r21,r21,1
   23688:	8c403fcc 	andi	r17,r17,255
   2368c:	8c40201c 	xori	r17,r17,128
   23690:	8c7fe004 	addi	r17,r17,-128
   23694:	00395e06 	br	21c10 <__alt_mem_MemoriaImagem1+0xfffc1c10>
   23698:	d8c02e15 	stw	r3,184(sp)
   2369c:	0039883a 	mov	fp,zero
   236a0:	003e3506 	br	22f78 <__alt_mem_MemoriaImagem1+0xfffc2f78>
   236a4:	d9002d17 	ldw	r4,180(sp)
   236a8:	d9801e04 	addi	r6,sp,120
   236ac:	b80b883a 	mov	r5,r23
   236b0:	00288f40 	call	288f4 <__sprint_r>
   236b4:	1039f81e 	bne	r2,zero,21e98 <__alt_mem_MemoriaImagem1+0xfffc1e98>
   236b8:	d8c02017 	ldw	r3,128(sp)
   236bc:	da000404 	addi	r8,sp,16
   236c0:	003cd006 	br	22a04 <__alt_mem_MemoriaImagem1+0xfffc2a04>
   236c4:	8009883a 	mov	r4,r16
   236c8:	df003d15 	stw	fp,244(sp)
   236cc:	00287600 	call	28760 <strlen>
   236d0:	d8802b15 	stw	r2,172(sp)
   236d4:	da003d17 	ldw	r8,244(sp)
   236d8:	103c200e 	bge	r2,zero,2275c <__alt_mem_MemoriaImagem1+0xfffc275c>
   236dc:	0005883a 	mov	r2,zero
   236e0:	003c1e06 	br	2275c <__alt_mem_MemoriaImagem1+0xfffc275c>
   236e4:	d9002d17 	ldw	r4,180(sp)
   236e8:	d9801e04 	addi	r6,sp,120
   236ec:	b80b883a 	mov	r5,r23
   236f0:	00288f40 	call	288f4 <__sprint_r>
   236f4:	1039e81e 	bne	r2,zero,21e98 <__alt_mem_MemoriaImagem1+0xfffc1e98>
   236f8:	d8c02017 	ldw	r3,128(sp)
   236fc:	d8801f17 	ldw	r2,124(sp)
   23700:	da000404 	addi	r8,sp,16
   23704:	d9403317 	ldw	r5,204(sp)
   23708:	10800044 	addi	r2,r2,1
   2370c:	44000015 	stw	r16,0(r8)
   23710:	28c7883a 	add	r3,r5,r3
   23714:	003b5b06 	br	22484 <__alt_mem_MemoriaImagem1+0xfffc2484>
   23718:	010000f4 	movhi	r4,3
   2371c:	2100f084 	addi	r4,r4,962
   23720:	d9003515 	stw	r4,212(sp)
   23724:	003af206 	br	222f0 <__alt_mem_MemoriaImagem1+0xfffc22f0>
   23728:	013fffc4 	movi	r4,-1
   2372c:	003a0806 	br	21f50 <__alt_mem_MemoriaImagem1+0xfffc1f50>
   23730:	0023883a 	mov	r17,zero
   23734:	003d9d06 	br	22dac <__alt_mem_MemoriaImagem1+0xfffc2dac>
   23738:	d9002d17 	ldw	r4,180(sp)
   2373c:	d9801e04 	addi	r6,sp,120
   23740:	b80b883a 	mov	r5,r23
   23744:	00288f40 	call	288f4 <__sprint_r>
   23748:	1039d31e 	bne	r2,zero,21e98 <__alt_mem_MemoriaImagem1+0xfffc1e98>
   2374c:	d8c02017 	ldw	r3,128(sp)
   23750:	da000404 	addi	r8,sp,16
   23754:	003d9406 	br	22da8 <__alt_mem_MemoriaImagem1+0xfffc2da8>
   23758:	010000f4 	movhi	r4,3
   2375c:	2100ec84 	addi	r4,r4,946
   23760:	d9002c15 	stw	r4,176(sp)
   23764:	d9002c17 	ldw	r4,176(sp)
   23768:	1c47883a 	add	r3,r3,r17
   2376c:	10800044 	addi	r2,r2,1
   23770:	41000015 	stw	r4,0(r8)
   23774:	44400115 	stw	r17,4(r8)
   23778:	d8c02015 	stw	r3,128(sp)
   2377c:	d8801f15 	stw	r2,124(sp)
   23780:	010001c4 	movi	r4,7
   23784:	20bfd716 	blt	r4,r2,236e4 <__alt_mem_MemoriaImagem1+0xfffc36e4>
   23788:	42000204 	addi	r8,r8,8
   2378c:	003fdd06 	br	23704 <__alt_mem_MemoriaImagem1+0xfffc3704>
   23790:	d9002d17 	ldw	r4,180(sp)
   23794:	d9801e04 	addi	r6,sp,120
   23798:	b80b883a 	mov	r5,r23
   2379c:	00288f40 	call	288f4 <__sprint_r>
   237a0:	1039bd1e 	bne	r2,zero,21e98 <__alt_mem_MemoriaImagem1+0xfffc1e98>
   237a4:	d8802617 	ldw	r2,152(sp)
   237a8:	d8c02017 	ldw	r3,128(sp)
   237ac:	da000404 	addi	r8,sp,16
   237b0:	003e1006 	br	22ff4 <__alt_mem_MemoriaImagem1+0xfffc2ff4>
   237b4:	00800044 	movi	r2,1
   237b8:	10803fcc 	andi	r2,r2,255
   237bc:	00c00044 	movi	r3,1
   237c0:	10fa0d26 	beq	r2,r3,21ff8 <__alt_mem_MemoriaImagem1+0xfffc1ff8>
   237c4:	00c00084 	movi	r3,2
   237c8:	10fbaf26 	beq	r2,r3,22688 <__alt_mem_MemoriaImagem1+0xfffc2688>
   237cc:	003a6d06 	br	22184 <__alt_mem_MemoriaImagem1+0xfffc2184>
   237d0:	010000f4 	movhi	r4,3
   237d4:	2100f084 	addi	r4,r4,962
   237d8:	d9003515 	stw	r4,212(sp)
   237dc:	003b5406 	br	22530 <__alt_mem_MemoriaImagem1+0xfffc2530>
   237e0:	d8802a17 	ldw	r2,168(sp)
   237e4:	00c00184 	movi	r3,6
   237e8:	1880012e 	bgeu	r3,r2,237f0 <___vfprintf_internal_r+0x1d68>
   237ec:	1805883a 	mov	r2,r3
   237f0:	d8802b15 	stw	r2,172(sp)
   237f4:	1000ef16 	blt	r2,zero,23bb4 <___vfprintf_internal_r+0x212c>
   237f8:	040000f4 	movhi	r16,3
   237fc:	d8802915 	stw	r2,164(sp)
   23800:	dcc02e15 	stw	r19,184(sp)
   23804:	d8002a15 	stw	zero,168(sp)
   23808:	d8003215 	stw	zero,200(sp)
   2380c:	8400ea04 	addi	r16,r16,936
   23810:	0039883a 	mov	fp,zero
   23814:	003a8006 	br	22218 <__alt_mem_MemoriaImagem1+0xfffc2218>
   23818:	0021883a 	mov	r16,zero
   2381c:	003e0706 	br	2303c <__alt_mem_MemoriaImagem1+0xfffc303c>
   23820:	d9002d17 	ldw	r4,180(sp)
   23824:	d9801e04 	addi	r6,sp,120
   23828:	b80b883a 	mov	r5,r23
   2382c:	00288f40 	call	288f4 <__sprint_r>
   23830:	1039991e 	bne	r2,zero,21e98 <__alt_mem_MemoriaImagem1+0xfffc1e98>
   23834:	d8802617 	ldw	r2,152(sp)
   23838:	d9403317 	ldw	r5,204(sp)
   2383c:	d8c02017 	ldw	r3,128(sp)
   23840:	da000404 	addi	r8,sp,16
   23844:	2885c83a 	sub	r2,r5,r2
   23848:	003dfb06 	br	23038 <__alt_mem_MemoriaImagem1+0xfffc3038>
   2384c:	9080004c 	andi	r2,r18,1
   23850:	103e8f1e 	bne	r2,zero,23290 <__alt_mem_MemoriaImagem1+0xfffc3290>
   23854:	d8802117 	ldw	r2,132(sp)
   23858:	003e9e06 	br	232d4 <__alt_mem_MemoriaImagem1+0xfffc32d4>
   2385c:	1025883a 	mov	r18,r2
   23860:	0039883a 	mov	fp,zero
   23864:	00800084 	movi	r2,2
   23868:	003fd306 	br	237b8 <__alt_mem_MemoriaImagem1+0xfffc37b8>
   2386c:	07000b44 	movi	fp,45
   23870:	df002785 	stb	fp,158(sp)
   23874:	003a1b06 	br	220e4 <__alt_mem_MemoriaImagem1+0xfffc20e4>
   23878:	00c00b44 	movi	r3,45
   2387c:	d8c02785 	stb	r3,158(sp)
   23880:	d8802915 	stw	r2,164(sp)
   23884:	dc802c17 	ldw	r18,176(sp)
   23888:	d8002a15 	stw	zero,168(sp)
   2388c:	07000b44 	movi	fp,45
   23890:	003a5e06 	br	2220c <__alt_mem_MemoriaImagem1+0xfffc220c>
   23894:	040000f4 	movhi	r16,3
   23898:	8400df04 	addi	r16,r16,892
   2389c:	003f4706 	br	235bc <__alt_mem_MemoriaImagem1+0xfffc35bc>
   238a0:	d9002e17 	ldw	r4,184(sp)
   238a4:	d9402f17 	ldw	r5,188(sp)
   238a8:	20800017 	ldw	r2,0(r4)
   238ac:	21000104 	addi	r4,r4,4
   238b0:	d9002e15 	stw	r4,184(sp)
   238b4:	11400015 	stw	r5,0(r2)
   238b8:	0038ab06 	br	21b68 <__alt_mem_MemoriaImagem1+0xfffc1b68>
   238bc:	dd802617 	ldw	r22,152(sp)
   238c0:	00bfff44 	movi	r2,-3
   238c4:	b0801c16 	blt	r22,r2,23938 <___vfprintf_internal_r+0x1eb0>
   238c8:	d9402a17 	ldw	r5,168(sp)
   238cc:	2d801a16 	blt	r5,r22,23938 <___vfprintf_internal_r+0x1eb0>
   238d0:	dd803215 	stw	r22,200(sp)
   238d4:	003e8906 	br	232fc <__alt_mem_MemoriaImagem1+0xfffc32fc>
   238d8:	010000f4 	movhi	r4,3
   238dc:	2100ec84 	addi	r4,r4,946
   238e0:	d9002c15 	stw	r4,176(sp)
   238e4:	003c9106 	br	22b2c <__alt_mem_MemoriaImagem1+0xfffc2b2c>
   238e8:	e005883a 	mov	r2,fp
   238ec:	003e7906 	br	232d4 <__alt_mem_MemoriaImagem1+0xfffc32d4>
   238f0:	d9002a17 	ldw	r4,168(sp)
   238f4:	df002783 	ldbu	fp,158(sp)
   238f8:	dcc02e15 	stw	r19,184(sp)
   238fc:	d9002915 	stw	r4,164(sp)
   23900:	d9002b15 	stw	r4,172(sp)
   23904:	d8002a15 	stw	zero,168(sp)
   23908:	d8003215 	stw	zero,200(sp)
   2390c:	003a3b06 	br	221fc <__alt_mem_MemoriaImagem1+0xfffc21fc>
   23910:	9080004c 	andi	r2,r18,1
   23914:	0039883a 	mov	fp,zero
   23918:	10000426 	beq	r2,zero,2392c <___vfprintf_internal_r+0x1ea4>
   2391c:	00800c04 	movi	r2,48
   23920:	dc001dc4 	addi	r16,sp,119
   23924:	d8801dc5 	stb	r2,119(sp)
   23928:	003b6406 	br	226bc <__alt_mem_MemoriaImagem1+0xfffc26bc>
   2392c:	d8002b15 	stw	zero,172(sp)
   23930:	dc001e04 	addi	r16,sp,120
   23934:	003a2b06 	br	221e4 <__alt_mem_MemoriaImagem1+0xfffc21e4>
   23938:	8c7fff84 	addi	r17,r17,-2
   2393c:	b5bfffc4 	addi	r22,r22,-1
   23940:	dd802615 	stw	r22,152(sp)
   23944:	dc4022c5 	stb	r17,139(sp)
   23948:	b000bf16 	blt	r22,zero,23c48 <___vfprintf_internal_r+0x21c0>
   2394c:	00800ac4 	movi	r2,43
   23950:	d8802305 	stb	r2,140(sp)
   23954:	00800244 	movi	r2,9
   23958:	15807016 	blt	r2,r22,23b1c <___vfprintf_internal_r+0x2094>
   2395c:	00800c04 	movi	r2,48
   23960:	b5800c04 	addi	r22,r22,48
   23964:	d8802345 	stb	r2,141(sp)
   23968:	dd802385 	stb	r22,142(sp)
   2396c:	d88023c4 	addi	r2,sp,143
   23970:	df0022c4 	addi	fp,sp,139
   23974:	d8c03317 	ldw	r3,204(sp)
   23978:	1739c83a 	sub	fp,r2,fp
   2397c:	d9003317 	ldw	r4,204(sp)
   23980:	e0c7883a 	add	r3,fp,r3
   23984:	df003a15 	stw	fp,232(sp)
   23988:	d8c02b15 	stw	r3,172(sp)
   2398c:	00800044 	movi	r2,1
   23990:	1100b30e 	bge	r2,r4,23c60 <___vfprintf_internal_r+0x21d8>
   23994:	d8c02b17 	ldw	r3,172(sp)
   23998:	18c00044 	addi	r3,r3,1
   2399c:	d8c02b15 	stw	r3,172(sp)
   239a0:	1805883a 	mov	r2,r3
   239a4:	1800ac16 	blt	r3,zero,23c58 <___vfprintf_internal_r+0x21d0>
   239a8:	d8003215 	stw	zero,200(sp)
   239ac:	003e5d06 	br	23324 <__alt_mem_MemoriaImagem1+0xfffc3324>
   239b0:	d9002d17 	ldw	r4,180(sp)
   239b4:	d9801e04 	addi	r6,sp,120
   239b8:	b80b883a 	mov	r5,r23
   239bc:	00288f40 	call	288f4 <__sprint_r>
   239c0:	1039351e 	bne	r2,zero,21e98 <__alt_mem_MemoriaImagem1+0xfffc1e98>
   239c4:	dc402617 	ldw	r17,152(sp)
   239c8:	d8c02017 	ldw	r3,128(sp)
   239cc:	d8801f17 	ldw	r2,124(sp)
   239d0:	da000404 	addi	r8,sp,16
   239d4:	003ed606 	br	23530 <__alt_mem_MemoriaImagem1+0xfffc3530>
   239d8:	182b883a 	mov	r21,r3
   239dc:	d8002a15 	stw	zero,168(sp)
   239e0:	00388c06 	br	21c14 <__alt_mem_MemoriaImagem1+0xfffc1c14>
   239e4:	d8802a17 	ldw	r2,168(sp)
   239e8:	103e071e 	bne	r2,zero,23208 <__alt_mem_MemoriaImagem1+0xfffc3208>
   239ec:	dc002a15 	stw	r16,168(sp)
   239f0:	003e0506 	br	23208 <__alt_mem_MemoriaImagem1+0xfffc3208>
   239f4:	d9002a17 	ldw	r4,168(sp)
   239f8:	20c00044 	addi	r3,r4,1
   239fc:	003e0f06 	br	2323c <__alt_mem_MemoriaImagem1+0xfffc323c>
   23a00:	01400184 	movi	r5,6
   23a04:	d9402a15 	stw	r5,168(sp)
   23a08:	003dff06 	br	23208 <__alt_mem_MemoriaImagem1+0xfffc3208>
   23a0c:	d8802104 	addi	r2,sp,132
   23a10:	d8800315 	stw	r2,12(sp)
   23a14:	d8802504 	addi	r2,sp,148
   23a18:	d8800215 	stw	r2,8(sp)
   23a1c:	d8802604 	addi	r2,sp,152
   23a20:	d8800115 	stw	r2,4(sp)
   23a24:	d8802a17 	ldw	r2,168(sp)
   23a28:	d9403617 	ldw	r5,216(sp)
   23a2c:	d9002d17 	ldw	r4,180(sp)
   23a30:	d8800015 	stw	r2,0(sp)
   23a34:	01c000c4 	movi	r7,3
   23a38:	980d883a 	mov	r6,r19
   23a3c:	da003d15 	stw	r8,244(sp)
   23a40:	002426c0 	call	2426c <_dtoa_r>
   23a44:	d8c02a17 	ldw	r3,168(sp)
   23a48:	da003d17 	ldw	r8,244(sp)
   23a4c:	1021883a 	mov	r16,r2
   23a50:	10f9883a 	add	fp,r2,r3
   23a54:	81000007 	ldb	r4,0(r16)
   23a58:	00800c04 	movi	r2,48
   23a5c:	20805e26 	beq	r4,r2,23bd8 <___vfprintf_internal_r+0x2150>
   23a60:	d8c02617 	ldw	r3,152(sp)
   23a64:	e0f9883a 	add	fp,fp,r3
   23a68:	003e0a06 	br	23294 <__alt_mem_MemoriaImagem1+0xfffc3294>
   23a6c:	00c00b44 	movi	r3,45
   23a70:	24e0003c 	xorhi	r19,r4,32768
   23a74:	d8c02905 	stb	r3,164(sp)
   23a78:	003de906 	br	23220 <__alt_mem_MemoriaImagem1+0xfffc3220>
   23a7c:	d8c03217 	ldw	r3,200(sp)
   23a80:	00c07a0e 	bge	zero,r3,23c6c <___vfprintf_internal_r+0x21e4>
   23a84:	00800044 	movi	r2,1
   23a88:	d9003317 	ldw	r4,204(sp)
   23a8c:	1105883a 	add	r2,r2,r4
   23a90:	d8802b15 	stw	r2,172(sp)
   23a94:	10004e16 	blt	r2,zero,23bd0 <___vfprintf_internal_r+0x2148>
   23a98:	044019c4 	movi	r17,103
   23a9c:	003e2106 	br	23324 <__alt_mem_MemoriaImagem1+0xfffc3324>
   23aa0:	d9002a17 	ldw	r4,168(sp)
   23aa4:	d8802104 	addi	r2,sp,132
   23aa8:	d8800315 	stw	r2,12(sp)
   23aac:	d9000015 	stw	r4,0(sp)
   23ab0:	d8802504 	addi	r2,sp,148
   23ab4:	d9403617 	ldw	r5,216(sp)
   23ab8:	d9002d17 	ldw	r4,180(sp)
   23abc:	d8800215 	stw	r2,8(sp)
   23ac0:	d8802604 	addi	r2,sp,152
   23ac4:	d8800115 	stw	r2,4(sp)
   23ac8:	01c000c4 	movi	r7,3
   23acc:	980d883a 	mov	r6,r19
   23ad0:	da003d15 	stw	r8,244(sp)
   23ad4:	002426c0 	call	2426c <_dtoa_r>
   23ad8:	d8c02a17 	ldw	r3,168(sp)
   23adc:	da003d17 	ldw	r8,244(sp)
   23ae0:	1021883a 	mov	r16,r2
   23ae4:	00801184 	movi	r2,70
   23ae8:	80f9883a 	add	fp,r16,r3
   23aec:	88bfd926 	beq	r17,r2,23a54 <__alt_mem_MemoriaImagem1+0xfffc3a54>
   23af0:	003de806 	br	23294 <__alt_mem_MemoriaImagem1+0xfffc3294>
   23af4:	d9002a17 	ldw	r4,168(sp)
   23af8:	00c04d0e 	bge	zero,r3,23c30 <___vfprintf_internal_r+0x21a8>
   23afc:	2000441e 	bne	r4,zero,23c10 <___vfprintf_internal_r+0x2188>
   23b00:	9480004c 	andi	r18,r18,1
   23b04:	9000421e 	bne	r18,zero,23c10 <___vfprintf_internal_r+0x2188>
   23b08:	1805883a 	mov	r2,r3
   23b0c:	18006f16 	blt	r3,zero,23ccc <___vfprintf_internal_r+0x2244>
   23b10:	d8c03217 	ldw	r3,200(sp)
   23b14:	d8c02b15 	stw	r3,172(sp)
   23b18:	003e0206 	br	23324 <__alt_mem_MemoriaImagem1+0xfffc3324>
   23b1c:	df0022c4 	addi	fp,sp,139
   23b20:	dc002a15 	stw	r16,168(sp)
   23b24:	4027883a 	mov	r19,r8
   23b28:	e021883a 	mov	r16,fp
   23b2c:	b009883a 	mov	r4,r22
   23b30:	01400284 	movi	r5,10
   23b34:	002b25c0 	call	2b25c <__modsi3>
   23b38:	10800c04 	addi	r2,r2,48
   23b3c:	843fffc4 	addi	r16,r16,-1
   23b40:	b009883a 	mov	r4,r22
   23b44:	01400284 	movi	r5,10
   23b48:	80800005 	stb	r2,0(r16)
   23b4c:	002b1d80 	call	2b1d8 <__divsi3>
   23b50:	102d883a 	mov	r22,r2
   23b54:	00800244 	movi	r2,9
   23b58:	15bff416 	blt	r2,r22,23b2c <__alt_mem_MemoriaImagem1+0xfffc3b2c>
   23b5c:	9811883a 	mov	r8,r19
   23b60:	b0800c04 	addi	r2,r22,48
   23b64:	8027883a 	mov	r19,r16
   23b68:	997fffc4 	addi	r5,r19,-1
   23b6c:	98bfffc5 	stb	r2,-1(r19)
   23b70:	dc002a17 	ldw	r16,168(sp)
   23b74:	2f006d2e 	bgeu	r5,fp,23d2c <___vfprintf_internal_r+0x22a4>
   23b78:	d9c02384 	addi	r7,sp,142
   23b7c:	3ccfc83a 	sub	r7,r7,r19
   23b80:	d9002344 	addi	r4,sp,141
   23b84:	e1cf883a 	add	r7,fp,r7
   23b88:	00000106 	br	23b90 <___vfprintf_internal_r+0x2108>
   23b8c:	28800003 	ldbu	r2,0(r5)
   23b90:	20800005 	stb	r2,0(r4)
   23b94:	21000044 	addi	r4,r4,1
   23b98:	29400044 	addi	r5,r5,1
   23b9c:	393ffb1e 	bne	r7,r4,23b8c <__alt_mem_MemoriaImagem1+0xfffc3b8c>
   23ba0:	d8802304 	addi	r2,sp,140
   23ba4:	14c5c83a 	sub	r2,r2,r19
   23ba8:	d8c02344 	addi	r3,sp,141
   23bac:	1885883a 	add	r2,r3,r2
   23bb0:	003f7006 	br	23974 <__alt_mem_MemoriaImagem1+0xfffc3974>
   23bb4:	0005883a 	mov	r2,zero
   23bb8:	003f0f06 	br	237f8 <__alt_mem_MemoriaImagem1+0xfffc37f8>
   23bbc:	d8c03217 	ldw	r3,200(sp)
   23bc0:	18c00044 	addi	r3,r3,1
   23bc4:	d8c02b15 	stw	r3,172(sp)
   23bc8:	1805883a 	mov	r2,r3
   23bcc:	183fb20e 	bge	r3,zero,23a98 <__alt_mem_MemoriaImagem1+0xfffc3a98>
   23bd0:	0005883a 	mov	r2,zero
   23bd4:	003fb006 	br	23a98 <__alt_mem_MemoriaImagem1+0xfffc3a98>
   23bd8:	d9003617 	ldw	r4,216(sp)
   23bdc:	000d883a 	mov	r6,zero
   23be0:	000f883a 	mov	r7,zero
   23be4:	980b883a 	mov	r5,r19
   23be8:	d8c03c15 	stw	r3,240(sp)
   23bec:	da003d15 	stw	r8,244(sp)
   23bf0:	002c6300 	call	2c630 <__eqdf2>
   23bf4:	d8c03c17 	ldw	r3,240(sp)
   23bf8:	da003d17 	ldw	r8,244(sp)
   23bfc:	103f9826 	beq	r2,zero,23a60 <__alt_mem_MemoriaImagem1+0xfffc3a60>
   23c00:	00800044 	movi	r2,1
   23c04:	10c7c83a 	sub	r3,r2,r3
   23c08:	d8c02615 	stw	r3,152(sp)
   23c0c:	003f9506 	br	23a64 <__alt_mem_MemoriaImagem1+0xfffc3a64>
   23c10:	d9002a17 	ldw	r4,168(sp)
   23c14:	d8c03217 	ldw	r3,200(sp)
   23c18:	20800044 	addi	r2,r4,1
   23c1c:	1885883a 	add	r2,r3,r2
   23c20:	d8802b15 	stw	r2,172(sp)
   23c24:	103dbf0e 	bge	r2,zero,23324 <__alt_mem_MemoriaImagem1+0xfffc3324>
   23c28:	0005883a 	mov	r2,zero
   23c2c:	003dbd06 	br	23324 <__alt_mem_MemoriaImagem1+0xfffc3324>
   23c30:	2000201e 	bne	r4,zero,23cb4 <___vfprintf_internal_r+0x222c>
   23c34:	9480004c 	andi	r18,r18,1
   23c38:	90001e1e 	bne	r18,zero,23cb4 <___vfprintf_internal_r+0x222c>
   23c3c:	00800044 	movi	r2,1
   23c40:	d8802b15 	stw	r2,172(sp)
   23c44:	003db706 	br	23324 <__alt_mem_MemoriaImagem1+0xfffc3324>
   23c48:	00800b44 	movi	r2,45
   23c4c:	05adc83a 	sub	r22,zero,r22
   23c50:	d8802305 	stb	r2,140(sp)
   23c54:	003f3f06 	br	23954 <__alt_mem_MemoriaImagem1+0xfffc3954>
   23c58:	0005883a 	mov	r2,zero
   23c5c:	003f5206 	br	239a8 <__alt_mem_MemoriaImagem1+0xfffc39a8>
   23c60:	90a4703a 	and	r18,r18,r2
   23c64:	903f4e26 	beq	r18,zero,239a0 <__alt_mem_MemoriaImagem1+0xfffc39a0>
   23c68:	003f4a06 	br	23994 <__alt_mem_MemoriaImagem1+0xfffc3994>
   23c6c:	00800084 	movi	r2,2
   23c70:	10c5c83a 	sub	r2,r2,r3
   23c74:	003f8406 	br	23a88 <__alt_mem_MemoriaImagem1+0xfffc3a88>
   23c78:	d9402e17 	ldw	r5,184(sp)
   23c7c:	d9002e17 	ldw	r4,184(sp)
   23c80:	ac400043 	ldbu	r17,1(r21)
   23c84:	29400017 	ldw	r5,0(r5)
   23c88:	20800104 	addi	r2,r4,4
   23c8c:	d8802e15 	stw	r2,184(sp)
   23c90:	d9402a15 	stw	r5,168(sp)
   23c94:	182b883a 	mov	r21,r3
   23c98:	283e7b0e 	bge	r5,zero,23688 <__alt_mem_MemoriaImagem1+0xfffc3688>
   23c9c:	8c403fcc 	andi	r17,r17,255
   23ca0:	017fffc4 	movi	r5,-1
   23ca4:	8c40201c 	xori	r17,r17,128
   23ca8:	d9402a15 	stw	r5,168(sp)
   23cac:	8c7fe004 	addi	r17,r17,-128
   23cb0:	0037d706 	br	21c10 <__alt_mem_MemoriaImagem1+0xfffc1c10>
   23cb4:	d8c02a17 	ldw	r3,168(sp)
   23cb8:	18c00084 	addi	r3,r3,2
   23cbc:	d8c02b15 	stw	r3,172(sp)
   23cc0:	1805883a 	mov	r2,r3
   23cc4:	183d970e 	bge	r3,zero,23324 <__alt_mem_MemoriaImagem1+0xfffc3324>
   23cc8:	003fd706 	br	23c28 <__alt_mem_MemoriaImagem1+0xfffc3c28>
   23ccc:	0005883a 	mov	r2,zero
   23cd0:	003f8f06 	br	23b10 <__alt_mem_MemoriaImagem1+0xfffc3b10>
   23cd4:	9080004c 	andi	r2,r18,1
   23cd8:	103f821e 	bne	r2,zero,23ae4 <__alt_mem_MemoriaImagem1+0xfffc3ae4>
   23cdc:	d8802117 	ldw	r2,132(sp)
   23ce0:	1405c83a 	sub	r2,r2,r16
   23ce4:	d8803315 	stw	r2,204(sp)
   23ce8:	b47ef426 	beq	r22,r17,238bc <__alt_mem_MemoriaImagem1+0xfffc38bc>
   23cec:	dd802617 	ldw	r22,152(sp)
   23cf0:	003f1206 	br	2393c <__alt_mem_MemoriaImagem1+0xfffc393c>
   23cf4:	d8c02b03 	ldbu	r3,172(sp)
   23cf8:	d8c02785 	stb	r3,158(sp)
   23cfc:	0038df06 	br	2207c <__alt_mem_MemoriaImagem1+0xfffc207c>
   23d00:	d8c02b03 	ldbu	r3,172(sp)
   23d04:	d8c02785 	stb	r3,158(sp)
   23d08:	0038aa06 	br	21fb4 <__alt_mem_MemoriaImagem1+0xfffc1fb4>
   23d0c:	d8c02b03 	ldbu	r3,172(sp)
   23d10:	d8c02785 	stb	r3,158(sp)
   23d14:	003a4306 	br	22624 <__alt_mem_MemoriaImagem1+0xfffc2624>
   23d18:	d8c02b03 	ldbu	r3,172(sp)
   23d1c:	d8c02785 	stb	r3,158(sp)
   23d20:	003af506 	br	228f8 <__alt_mem_MemoriaImagem1+0xfffc28f8>
   23d24:	0005883a 	mov	r2,zero
   23d28:	003d7b06 	br	23318 <__alt_mem_MemoriaImagem1+0xfffc3318>
   23d2c:	d8802344 	addi	r2,sp,141
   23d30:	003f1006 	br	23974 <__alt_mem_MemoriaImagem1+0xfffc3974>
   23d34:	d8c02b03 	ldbu	r3,172(sp)
   23d38:	d8c02785 	stb	r3,158(sp)
   23d3c:	0038fd06 	br	22134 <__alt_mem_MemoriaImagem1+0xfffc2134>
   23d40:	d8c02b03 	ldbu	r3,172(sp)
   23d44:	d8c02785 	stb	r3,158(sp)
   23d48:	003a9706 	br	227a8 <__alt_mem_MemoriaImagem1+0xfffc27a8>
   23d4c:	d8c02b03 	ldbu	r3,172(sp)
   23d50:	d8c02785 	stb	r3,158(sp)
   23d54:	003a1806 	br	225b8 <__alt_mem_MemoriaImagem1+0xfffc25b8>
   23d58:	d8c02b03 	ldbu	r3,172(sp)
   23d5c:	d8c02785 	stb	r3,158(sp)
   23d60:	003abe06 	br	2285c <__alt_mem_MemoriaImagem1+0xfffc285c>

00023d64 <__vfprintf_internal>:
   23d64:	008000f4 	movhi	r2,3
   23d68:	10884604 	addi	r2,r2,8472
   23d6c:	300f883a 	mov	r7,r6
   23d70:	280d883a 	mov	r6,r5
   23d74:	200b883a 	mov	r5,r4
   23d78:	11000017 	ldw	r4,0(r2)
   23d7c:	0021a881 	jmpi	21a88 <___vfprintf_internal_r>

00023d80 <__sbprintf>:
   23d80:	2880030b 	ldhu	r2,12(r5)
   23d84:	2ac01917 	ldw	r11,100(r5)
   23d88:	2a80038b 	ldhu	r10,14(r5)
   23d8c:	2a400717 	ldw	r9,28(r5)
   23d90:	2a000917 	ldw	r8,36(r5)
   23d94:	defee204 	addi	sp,sp,-1144
   23d98:	00c10004 	movi	r3,1024
   23d9c:	dc011a15 	stw	r16,1128(sp)
   23da0:	10bfff4c 	andi	r2,r2,65533
   23da4:	2821883a 	mov	r16,r5
   23da8:	d8cb883a 	add	r5,sp,r3
   23dac:	dc811c15 	stw	r18,1136(sp)
   23db0:	dc411b15 	stw	r17,1132(sp)
   23db4:	dfc11d15 	stw	ra,1140(sp)
   23db8:	2025883a 	mov	r18,r4
   23dbc:	d881030d 	sth	r2,1036(sp)
   23dc0:	dac11915 	stw	r11,1124(sp)
   23dc4:	da81038d 	sth	r10,1038(sp)
   23dc8:	da410715 	stw	r9,1052(sp)
   23dcc:	da010915 	stw	r8,1060(sp)
   23dd0:	dec10015 	stw	sp,1024(sp)
   23dd4:	dec10415 	stw	sp,1040(sp)
   23dd8:	d8c10215 	stw	r3,1032(sp)
   23ddc:	d8c10515 	stw	r3,1044(sp)
   23de0:	d8010615 	stw	zero,1048(sp)
   23de4:	0021a880 	call	21a88 <___vfprintf_internal_r>
   23de8:	1023883a 	mov	r17,r2
   23dec:	10000416 	blt	r2,zero,23e00 <__sbprintf+0x80>
   23df0:	d9410004 	addi	r5,sp,1024
   23df4:	9009883a 	mov	r4,r18
   23df8:	0025b100 	call	25b10 <_fflush_r>
   23dfc:	10000d1e 	bne	r2,zero,23e34 <__sbprintf+0xb4>
   23e00:	d881030b 	ldhu	r2,1036(sp)
   23e04:	1080100c 	andi	r2,r2,64
   23e08:	10000326 	beq	r2,zero,23e18 <__sbprintf+0x98>
   23e0c:	8080030b 	ldhu	r2,12(r16)
   23e10:	10801014 	ori	r2,r2,64
   23e14:	8080030d 	sth	r2,12(r16)
   23e18:	8805883a 	mov	r2,r17
   23e1c:	dfc11d17 	ldw	ra,1140(sp)
   23e20:	dc811c17 	ldw	r18,1136(sp)
   23e24:	dc411b17 	ldw	r17,1132(sp)
   23e28:	dc011a17 	ldw	r16,1128(sp)
   23e2c:	dec11e04 	addi	sp,sp,1144
   23e30:	f800283a 	ret
   23e34:	047fffc4 	movi	r17,-1
   23e38:	003ff106 	br	23e00 <__alt_mem_MemoriaImagem1+0xfffc3e00>

00023e3c <_write_r>:
   23e3c:	defffd04 	addi	sp,sp,-12
   23e40:	2805883a 	mov	r2,r5
   23e44:	dc000015 	stw	r16,0(sp)
   23e48:	040000f4 	movhi	r16,3
   23e4c:	dc400115 	stw	r17,4(sp)
   23e50:	300b883a 	mov	r5,r6
   23e54:	840f1804 	addi	r16,r16,15456
   23e58:	2023883a 	mov	r17,r4
   23e5c:	380d883a 	mov	r6,r7
   23e60:	1009883a 	mov	r4,r2
   23e64:	dfc00215 	stw	ra,8(sp)
   23e68:	80000015 	stw	zero,0(r16)
   23e6c:	002e7700 	call	2e770 <write>
   23e70:	00ffffc4 	movi	r3,-1
   23e74:	10c00526 	beq	r2,r3,23e8c <_write_r+0x50>
   23e78:	dfc00217 	ldw	ra,8(sp)
   23e7c:	dc400117 	ldw	r17,4(sp)
   23e80:	dc000017 	ldw	r16,0(sp)
   23e84:	dec00304 	addi	sp,sp,12
   23e88:	f800283a 	ret
   23e8c:	80c00017 	ldw	r3,0(r16)
   23e90:	183ff926 	beq	r3,zero,23e78 <__alt_mem_MemoriaImagem1+0xfffc3e78>
   23e94:	88c00015 	stw	r3,0(r17)
   23e98:	003ff706 	br	23e78 <__alt_mem_MemoriaImagem1+0xfffc3e78>

00023e9c <__swsetup_r>:
   23e9c:	008000f4 	movhi	r2,3
   23ea0:	defffd04 	addi	sp,sp,-12
   23ea4:	10884604 	addi	r2,r2,8472
   23ea8:	dc400115 	stw	r17,4(sp)
   23eac:	2023883a 	mov	r17,r4
   23eb0:	11000017 	ldw	r4,0(r2)
   23eb4:	dc000015 	stw	r16,0(sp)
   23eb8:	dfc00215 	stw	ra,8(sp)
   23ebc:	2821883a 	mov	r16,r5
   23ec0:	20000226 	beq	r4,zero,23ecc <__swsetup_r+0x30>
   23ec4:	20800e17 	ldw	r2,56(r4)
   23ec8:	10003126 	beq	r2,zero,23f90 <__swsetup_r+0xf4>
   23ecc:	8080030b 	ldhu	r2,12(r16)
   23ed0:	10c0020c 	andi	r3,r2,8
   23ed4:	1009883a 	mov	r4,r2
   23ed8:	18000f26 	beq	r3,zero,23f18 <__swsetup_r+0x7c>
   23edc:	80c00417 	ldw	r3,16(r16)
   23ee0:	18001526 	beq	r3,zero,23f38 <__swsetup_r+0x9c>
   23ee4:	1100004c 	andi	r4,r2,1
   23ee8:	20001c1e 	bne	r4,zero,23f5c <__swsetup_r+0xc0>
   23eec:	1080008c 	andi	r2,r2,2
   23ef0:	1000291e 	bne	r2,zero,23f98 <__swsetup_r+0xfc>
   23ef4:	80800517 	ldw	r2,20(r16)
   23ef8:	80800215 	stw	r2,8(r16)
   23efc:	18001c26 	beq	r3,zero,23f70 <__swsetup_r+0xd4>
   23f00:	0005883a 	mov	r2,zero
   23f04:	dfc00217 	ldw	ra,8(sp)
   23f08:	dc400117 	ldw	r17,4(sp)
   23f0c:	dc000017 	ldw	r16,0(sp)
   23f10:	dec00304 	addi	sp,sp,12
   23f14:	f800283a 	ret
   23f18:	2080040c 	andi	r2,r4,16
   23f1c:	10002e26 	beq	r2,zero,23fd8 <__swsetup_r+0x13c>
   23f20:	2080010c 	andi	r2,r4,4
   23f24:	10001e1e 	bne	r2,zero,23fa0 <__swsetup_r+0x104>
   23f28:	80c00417 	ldw	r3,16(r16)
   23f2c:	20800214 	ori	r2,r4,8
   23f30:	8080030d 	sth	r2,12(r16)
   23f34:	183feb1e 	bne	r3,zero,23ee4 <__alt_mem_MemoriaImagem1+0xfffc3ee4>
   23f38:	1100a00c 	andi	r4,r2,640
   23f3c:	01408004 	movi	r5,512
   23f40:	217fe826 	beq	r4,r5,23ee4 <__alt_mem_MemoriaImagem1+0xfffc3ee4>
   23f44:	800b883a 	mov	r5,r16
   23f48:	8809883a 	mov	r4,r17
   23f4c:	0020bb80 	call	20bb8 <__smakebuf_r>
   23f50:	8080030b 	ldhu	r2,12(r16)
   23f54:	80c00417 	ldw	r3,16(r16)
   23f58:	003fe206 	br	23ee4 <__alt_mem_MemoriaImagem1+0xfffc3ee4>
   23f5c:	80800517 	ldw	r2,20(r16)
   23f60:	80000215 	stw	zero,8(r16)
   23f64:	0085c83a 	sub	r2,zero,r2
   23f68:	80800615 	stw	r2,24(r16)
   23f6c:	183fe41e 	bne	r3,zero,23f00 <__alt_mem_MemoriaImagem1+0xfffc3f00>
   23f70:	80c0030b 	ldhu	r3,12(r16)
   23f74:	0005883a 	mov	r2,zero
   23f78:	1900200c 	andi	r4,r3,128
   23f7c:	203fe126 	beq	r4,zero,23f04 <__alt_mem_MemoriaImagem1+0xfffc3f04>
   23f80:	18c01014 	ori	r3,r3,64
   23f84:	80c0030d 	sth	r3,12(r16)
   23f88:	00bfffc4 	movi	r2,-1
   23f8c:	003fdd06 	br	23f04 <__alt_mem_MemoriaImagem1+0xfffc3f04>
   23f90:	0025efc0 	call	25efc <__sinit>
   23f94:	003fcd06 	br	23ecc <__alt_mem_MemoriaImagem1+0xfffc3ecc>
   23f98:	0005883a 	mov	r2,zero
   23f9c:	003fd606 	br	23ef8 <__alt_mem_MemoriaImagem1+0xfffc3ef8>
   23fa0:	81400c17 	ldw	r5,48(r16)
   23fa4:	28000626 	beq	r5,zero,23fc0 <__swsetup_r+0x124>
   23fa8:	80801004 	addi	r2,r16,64
   23fac:	28800326 	beq	r5,r2,23fbc <__swsetup_r+0x120>
   23fb0:	8809883a 	mov	r4,r17
   23fb4:	002611c0 	call	2611c <_free_r>
   23fb8:	8100030b 	ldhu	r4,12(r16)
   23fbc:	80000c15 	stw	zero,48(r16)
   23fc0:	80c00417 	ldw	r3,16(r16)
   23fc4:	00bff6c4 	movi	r2,-37
   23fc8:	1108703a 	and	r4,r2,r4
   23fcc:	80000115 	stw	zero,4(r16)
   23fd0:	80c00015 	stw	r3,0(r16)
   23fd4:	003fd506 	br	23f2c <__alt_mem_MemoriaImagem1+0xfffc3f2c>
   23fd8:	00800244 	movi	r2,9
   23fdc:	88800015 	stw	r2,0(r17)
   23fe0:	20801014 	ori	r2,r4,64
   23fe4:	8080030d 	sth	r2,12(r16)
   23fe8:	00bfffc4 	movi	r2,-1
   23fec:	003fc506 	br	23f04 <__alt_mem_MemoriaImagem1+0xfffc3f04>

00023ff0 <_close_r>:
   23ff0:	defffd04 	addi	sp,sp,-12
   23ff4:	dc000015 	stw	r16,0(sp)
   23ff8:	040000f4 	movhi	r16,3
   23ffc:	dc400115 	stw	r17,4(sp)
   24000:	840f1804 	addi	r16,r16,15456
   24004:	2023883a 	mov	r17,r4
   24008:	2809883a 	mov	r4,r5
   2400c:	dfc00215 	stw	ra,8(sp)
   24010:	80000015 	stw	zero,0(r16)
   24014:	002dc940 	call	2dc94 <close>
   24018:	00ffffc4 	movi	r3,-1
   2401c:	10c00526 	beq	r2,r3,24034 <_close_r+0x44>
   24020:	dfc00217 	ldw	ra,8(sp)
   24024:	dc400117 	ldw	r17,4(sp)
   24028:	dc000017 	ldw	r16,0(sp)
   2402c:	dec00304 	addi	sp,sp,12
   24030:	f800283a 	ret
   24034:	80c00017 	ldw	r3,0(r16)
   24038:	183ff926 	beq	r3,zero,24020 <__alt_mem_MemoriaImagem1+0xfffc4020>
   2403c:	88c00015 	stw	r3,0(r17)
   24040:	003ff706 	br	24020 <__alt_mem_MemoriaImagem1+0xfffc4020>

00024044 <quorem>:
   24044:	defff204 	addi	sp,sp,-56
   24048:	ddc00b15 	stw	r23,44(sp)
   2404c:	20800417 	ldw	r2,16(r4)
   24050:	2dc00417 	ldw	r23,16(r5)
   24054:	dfc00d15 	stw	ra,52(sp)
   24058:	df000c15 	stw	fp,48(sp)
   2405c:	dd800a15 	stw	r22,40(sp)
   24060:	dd400915 	stw	r21,36(sp)
   24064:	dd000815 	stw	r20,32(sp)
   24068:	dcc00715 	stw	r19,28(sp)
   2406c:	dc800615 	stw	r18,24(sp)
   24070:	dc400515 	stw	r17,20(sp)
   24074:	dc000415 	stw	r16,16(sp)
   24078:	15c07a16 	blt	r2,r23,24264 <quorem+0x220>
   2407c:	bdffffc4 	addi	r23,r23,-1
   24080:	bde9883a 	add	r20,r23,r23
   24084:	28c00504 	addi	r3,r5,20
   24088:	a529883a 	add	r20,r20,r20
   2408c:	1d39883a 	add	fp,r3,r20
   24090:	24c00504 	addi	r19,r4,20
   24094:	d9400215 	stw	r5,8(sp)
   24098:	9d29883a 	add	r20,r19,r20
   2409c:	e1400017 	ldw	r5,0(fp)
   240a0:	d9000015 	stw	r4,0(sp)
   240a4:	a1000017 	ldw	r4,0(r20)
   240a8:	29400044 	addi	r5,r5,1
   240ac:	d8c00115 	stw	r3,4(sp)
   240b0:	dd000315 	stw	r20,12(sp)
   240b4:	002b2d00 	call	2b2d0 <__udivsi3>
   240b8:	1025883a 	mov	r18,r2
   240bc:	10003026 	beq	r2,zero,24180 <quorem+0x13c>
   240c0:	dc400117 	ldw	r17,4(sp)
   240c4:	9829883a 	mov	r20,r19
   240c8:	002d883a 	mov	r22,zero
   240cc:	0021883a 	mov	r16,zero
   240d0:	8d400017 	ldw	r21,0(r17)
   240d4:	900b883a 	mov	r5,r18
   240d8:	8c400104 	addi	r17,r17,4
   240dc:	a93fffcc 	andi	r4,r21,65535
   240e0:	002b38c0 	call	2b38c <__mulsi3>
   240e4:	a808d43a 	srli	r4,r21,16
   240e8:	900b883a 	mov	r5,r18
   240ec:	15ad883a 	add	r22,r2,r22
   240f0:	002b38c0 	call	2b38c <__mulsi3>
   240f4:	a1000017 	ldw	r4,0(r20)
   240f8:	b00cd43a 	srli	r6,r22,16
   240fc:	b0ffffcc 	andi	r3,r22,65535
   24100:	217fffcc 	andi	r5,r4,65535
   24104:	2c21883a 	add	r16,r5,r16
   24108:	80c7c83a 	sub	r3,r16,r3
   2410c:	2008d43a 	srli	r4,r4,16
   24110:	1185883a 	add	r2,r2,r6
   24114:	1821d43a 	srai	r16,r3,16
   24118:	117fffcc 	andi	r5,r2,65535
   2411c:	2149c83a 	sub	r4,r4,r5
   24120:	2421883a 	add	r16,r4,r16
   24124:	8008943a 	slli	r4,r16,16
   24128:	18ffffcc 	andi	r3,r3,65535
   2412c:	102cd43a 	srli	r22,r2,16
   24130:	20c8b03a 	or	r4,r4,r3
   24134:	a1000015 	stw	r4,0(r20)
   24138:	8021d43a 	srai	r16,r16,16
   2413c:	a5000104 	addi	r20,r20,4
   24140:	e47fe32e 	bgeu	fp,r17,240d0 <__alt_mem_MemoriaImagem1+0xfffc40d0>
   24144:	d8c00317 	ldw	r3,12(sp)
   24148:	18800017 	ldw	r2,0(r3)
   2414c:	10000c1e 	bne	r2,zero,24180 <quorem+0x13c>
   24150:	18bfff04 	addi	r2,r3,-4
   24154:	9880082e 	bgeu	r19,r2,24178 <quorem+0x134>
   24158:	18ffff17 	ldw	r3,-4(r3)
   2415c:	18000326 	beq	r3,zero,2416c <quorem+0x128>
   24160:	00000506 	br	24178 <quorem+0x134>
   24164:	10c00017 	ldw	r3,0(r2)
   24168:	1800031e 	bne	r3,zero,24178 <quorem+0x134>
   2416c:	10bfff04 	addi	r2,r2,-4
   24170:	bdffffc4 	addi	r23,r23,-1
   24174:	98bffb36 	bltu	r19,r2,24164 <__alt_mem_MemoriaImagem1+0xfffc4164>
   24178:	d8c00017 	ldw	r3,0(sp)
   2417c:	1dc00415 	stw	r23,16(r3)
   24180:	d9400217 	ldw	r5,8(sp)
   24184:	d9000017 	ldw	r4,0(sp)
   24188:	00279180 	call	27918 <__mcmp>
   2418c:	10002816 	blt	r2,zero,24230 <quorem+0x1ec>
   24190:	dc400117 	ldw	r17,4(sp)
   24194:	94800044 	addi	r18,r18,1
   24198:	980d883a 	mov	r6,r19
   2419c:	0007883a 	mov	r3,zero
   241a0:	31000017 	ldw	r4,0(r6)
   241a4:	89400017 	ldw	r5,0(r17)
   241a8:	31800104 	addi	r6,r6,4
   241ac:	20bfffcc 	andi	r2,r4,65535
   241b0:	10c7883a 	add	r3,r2,r3
   241b4:	28bfffcc 	andi	r2,r5,65535
   241b8:	1885c83a 	sub	r2,r3,r2
   241bc:	280ad43a 	srli	r5,r5,16
   241c0:	2008d43a 	srli	r4,r4,16
   241c4:	1007d43a 	srai	r3,r2,16
   241c8:	10bfffcc 	andi	r2,r2,65535
   241cc:	2149c83a 	sub	r4,r4,r5
   241d0:	20c9883a 	add	r4,r4,r3
   241d4:	200a943a 	slli	r5,r4,16
   241d8:	8c400104 	addi	r17,r17,4
   241dc:	2007d43a 	srai	r3,r4,16
   241e0:	2884b03a 	or	r2,r5,r2
   241e4:	30bfff15 	stw	r2,-4(r6)
   241e8:	e47fed2e 	bgeu	fp,r17,241a0 <__alt_mem_MemoriaImagem1+0xfffc41a0>
   241ec:	bdc5883a 	add	r2,r23,r23
   241f0:	1085883a 	add	r2,r2,r2
   241f4:	9887883a 	add	r3,r19,r2
   241f8:	18800017 	ldw	r2,0(r3)
   241fc:	10000c1e 	bne	r2,zero,24230 <quorem+0x1ec>
   24200:	18bfff04 	addi	r2,r3,-4
   24204:	9880082e 	bgeu	r19,r2,24228 <quorem+0x1e4>
   24208:	18ffff17 	ldw	r3,-4(r3)
   2420c:	18000326 	beq	r3,zero,2421c <quorem+0x1d8>
   24210:	00000506 	br	24228 <quorem+0x1e4>
   24214:	10c00017 	ldw	r3,0(r2)
   24218:	1800031e 	bne	r3,zero,24228 <quorem+0x1e4>
   2421c:	10bfff04 	addi	r2,r2,-4
   24220:	bdffffc4 	addi	r23,r23,-1
   24224:	98bffb36 	bltu	r19,r2,24214 <__alt_mem_MemoriaImagem1+0xfffc4214>
   24228:	d8c00017 	ldw	r3,0(sp)
   2422c:	1dc00415 	stw	r23,16(r3)
   24230:	9005883a 	mov	r2,r18
   24234:	dfc00d17 	ldw	ra,52(sp)
   24238:	df000c17 	ldw	fp,48(sp)
   2423c:	ddc00b17 	ldw	r23,44(sp)
   24240:	dd800a17 	ldw	r22,40(sp)
   24244:	dd400917 	ldw	r21,36(sp)
   24248:	dd000817 	ldw	r20,32(sp)
   2424c:	dcc00717 	ldw	r19,28(sp)
   24250:	dc800617 	ldw	r18,24(sp)
   24254:	dc400517 	ldw	r17,20(sp)
   24258:	dc000417 	ldw	r16,16(sp)
   2425c:	dec00e04 	addi	sp,sp,56
   24260:	f800283a 	ret
   24264:	0005883a 	mov	r2,zero
   24268:	003ff206 	br	24234 <__alt_mem_MemoriaImagem1+0xfffc4234>

0002426c <_dtoa_r>:
   2426c:	20801017 	ldw	r2,64(r4)
   24270:	deffde04 	addi	sp,sp,-136
   24274:	df002015 	stw	fp,128(sp)
   24278:	dcc01b15 	stw	r19,108(sp)
   2427c:	dc801a15 	stw	r18,104(sp)
   24280:	dc401915 	stw	r17,100(sp)
   24284:	dc001815 	stw	r16,96(sp)
   24288:	dfc02115 	stw	ra,132(sp)
   2428c:	ddc01f15 	stw	r23,124(sp)
   24290:	dd801e15 	stw	r22,120(sp)
   24294:	dd401d15 	stw	r21,116(sp)
   24298:	dd001c15 	stw	r20,112(sp)
   2429c:	d9c00315 	stw	r7,12(sp)
   242a0:	2039883a 	mov	fp,r4
   242a4:	3023883a 	mov	r17,r6
   242a8:	2825883a 	mov	r18,r5
   242ac:	dc002417 	ldw	r16,144(sp)
   242b0:	3027883a 	mov	r19,r6
   242b4:	10000826 	beq	r2,zero,242d8 <_dtoa_r+0x6c>
   242b8:	21801117 	ldw	r6,68(r4)
   242bc:	00c00044 	movi	r3,1
   242c0:	100b883a 	mov	r5,r2
   242c4:	1986983a 	sll	r3,r3,r6
   242c8:	11800115 	stw	r6,4(r2)
   242cc:	10c00215 	stw	r3,8(r2)
   242d0:	002703c0 	call	2703c <_Bfree>
   242d4:	e0001015 	stw	zero,64(fp)
   242d8:	88002e16 	blt	r17,zero,24394 <_dtoa_r+0x128>
   242dc:	80000015 	stw	zero,0(r16)
   242e0:	889ffc2c 	andhi	r2,r17,32752
   242e4:	00dffc34 	movhi	r3,32752
   242e8:	10c01c26 	beq	r2,r3,2435c <_dtoa_r+0xf0>
   242ec:	000d883a 	mov	r6,zero
   242f0:	000f883a 	mov	r7,zero
   242f4:	9009883a 	mov	r4,r18
   242f8:	980b883a 	mov	r5,r19
   242fc:	002c6300 	call	2c630 <__eqdf2>
   24300:	10002b1e 	bne	r2,zero,243b0 <_dtoa_r+0x144>
   24304:	d9c02317 	ldw	r7,140(sp)
   24308:	00800044 	movi	r2,1
   2430c:	38800015 	stw	r2,0(r7)
   24310:	d8802517 	ldw	r2,148(sp)
   24314:	10019e26 	beq	r2,zero,24990 <_dtoa_r+0x724>
   24318:	d8c02517 	ldw	r3,148(sp)
   2431c:	008000f4 	movhi	r2,3
   24320:	1080ec44 	addi	r2,r2,945
   24324:	18800015 	stw	r2,0(r3)
   24328:	10bfffc4 	addi	r2,r2,-1
   2432c:	dfc02117 	ldw	ra,132(sp)
   24330:	df002017 	ldw	fp,128(sp)
   24334:	ddc01f17 	ldw	r23,124(sp)
   24338:	dd801e17 	ldw	r22,120(sp)
   2433c:	dd401d17 	ldw	r21,116(sp)
   24340:	dd001c17 	ldw	r20,112(sp)
   24344:	dcc01b17 	ldw	r19,108(sp)
   24348:	dc801a17 	ldw	r18,104(sp)
   2434c:	dc401917 	ldw	r17,100(sp)
   24350:	dc001817 	ldw	r16,96(sp)
   24354:	dec02204 	addi	sp,sp,136
   24358:	f800283a 	ret
   2435c:	d8c02317 	ldw	r3,140(sp)
   24360:	0089c3c4 	movi	r2,9999
   24364:	18800015 	stw	r2,0(r3)
   24368:	90017726 	beq	r18,zero,24948 <_dtoa_r+0x6dc>
   2436c:	008000f4 	movhi	r2,3
   24370:	1080f804 	addi	r2,r2,992
   24374:	d9002517 	ldw	r4,148(sp)
   24378:	203fec26 	beq	r4,zero,2432c <__alt_mem_MemoriaImagem1+0xfffc432c>
   2437c:	10c000c7 	ldb	r3,3(r2)
   24380:	1801781e 	bne	r3,zero,24964 <_dtoa_r+0x6f8>
   24384:	10c000c4 	addi	r3,r2,3
   24388:	d9802517 	ldw	r6,148(sp)
   2438c:	30c00015 	stw	r3,0(r6)
   24390:	003fe606 	br	2432c <__alt_mem_MemoriaImagem1+0xfffc432c>
   24394:	04e00034 	movhi	r19,32768
   24398:	9cffffc4 	addi	r19,r19,-1
   2439c:	00800044 	movi	r2,1
   243a0:	8ce6703a 	and	r19,r17,r19
   243a4:	80800015 	stw	r2,0(r16)
   243a8:	9823883a 	mov	r17,r19
   243ac:	003fcc06 	br	242e0 <__alt_mem_MemoriaImagem1+0xfffc42e0>
   243b0:	d8800204 	addi	r2,sp,8
   243b4:	d8800015 	stw	r2,0(sp)
   243b8:	d9c00104 	addi	r7,sp,4
   243bc:	900b883a 	mov	r5,r18
   243c0:	980d883a 	mov	r6,r19
   243c4:	e009883a 	mov	r4,fp
   243c8:	8820d53a 	srli	r16,r17,20
   243cc:	0027ce40 	call	27ce4 <__d2b>
   243d0:	d8800915 	stw	r2,36(sp)
   243d4:	8001651e 	bne	r16,zero,2496c <_dtoa_r+0x700>
   243d8:	dd800217 	ldw	r22,8(sp)
   243dc:	dc000117 	ldw	r16,4(sp)
   243e0:	00800804 	movi	r2,32
   243e4:	b421883a 	add	r16,r22,r16
   243e8:	80c10c84 	addi	r3,r16,1074
   243ec:	10c2d10e 	bge	r2,r3,24f34 <_dtoa_r+0xcc8>
   243f0:	00801004 	movi	r2,64
   243f4:	81010484 	addi	r4,r16,1042
   243f8:	10c7c83a 	sub	r3,r2,r3
   243fc:	9108d83a 	srl	r4,r18,r4
   24400:	88e2983a 	sll	r17,r17,r3
   24404:	2448b03a 	or	r4,r4,r17
   24408:	002db4c0 	call	2db4c <__floatunsidf>
   2440c:	017f8434 	movhi	r5,65040
   24410:	01800044 	movi	r6,1
   24414:	1009883a 	mov	r4,r2
   24418:	194b883a 	add	r5,r3,r5
   2441c:	843fffc4 	addi	r16,r16,-1
   24420:	d9801115 	stw	r6,68(sp)
   24424:	000d883a 	mov	r6,zero
   24428:	01cffe34 	movhi	r7,16376
   2442c:	002d0f40 	call	2d0f4 <__subdf3>
   24430:	0198dbf4 	movhi	r6,25455
   24434:	01cff4f4 	movhi	r7,16339
   24438:	3190d844 	addi	r6,r6,17249
   2443c:	39e1e9c4 	addi	r7,r7,-30809
   24440:	1009883a 	mov	r4,r2
   24444:	180b883a 	mov	r5,r3
   24448:	002c8880 	call	2c888 <__muldf3>
   2444c:	01a2d874 	movhi	r6,35681
   24450:	01cff1f4 	movhi	r7,16327
   24454:	31b22cc4 	addi	r6,r6,-14157
   24458:	39e28a04 	addi	r7,r7,-30168
   2445c:	180b883a 	mov	r5,r3
   24460:	1009883a 	mov	r4,r2
   24464:	002b3b40 	call	2b3b4 <__adddf3>
   24468:	8009883a 	mov	r4,r16
   2446c:	1029883a 	mov	r20,r2
   24470:	1823883a 	mov	r17,r3
   24474:	002da700 	call	2da70 <__floatsidf>
   24478:	019427f4 	movhi	r6,20639
   2447c:	01cff4f4 	movhi	r7,16339
   24480:	319e7ec4 	addi	r6,r6,31227
   24484:	39d104c4 	addi	r7,r7,17427
   24488:	1009883a 	mov	r4,r2
   2448c:	180b883a 	mov	r5,r3
   24490:	002c8880 	call	2c888 <__muldf3>
   24494:	100d883a 	mov	r6,r2
   24498:	180f883a 	mov	r7,r3
   2449c:	a009883a 	mov	r4,r20
   244a0:	880b883a 	mov	r5,r17
   244a4:	002b3b40 	call	2b3b4 <__adddf3>
   244a8:	1009883a 	mov	r4,r2
   244ac:	180b883a 	mov	r5,r3
   244b0:	1029883a 	mov	r20,r2
   244b4:	1823883a 	mov	r17,r3
   244b8:	002d9f00 	call	2d9f0 <__fixdfsi>
   244bc:	000d883a 	mov	r6,zero
   244c0:	000f883a 	mov	r7,zero
   244c4:	a009883a 	mov	r4,r20
   244c8:	880b883a 	mov	r5,r17
   244cc:	d8800515 	stw	r2,20(sp)
   244d0:	002c7940 	call	2c794 <__ledf2>
   244d4:	10028716 	blt	r2,zero,24ef4 <_dtoa_r+0xc88>
   244d8:	d8c00517 	ldw	r3,20(sp)
   244dc:	00800584 	movi	r2,22
   244e0:	10c27536 	bltu	r2,r3,24eb8 <_dtoa_r+0xc4c>
   244e4:	180490fa 	slli	r2,r3,3
   244e8:	00c000f4 	movhi	r3,3
   244ec:	18c11304 	addi	r3,r3,1100
   244f0:	1885883a 	add	r2,r3,r2
   244f4:	11000017 	ldw	r4,0(r2)
   244f8:	11400117 	ldw	r5,4(r2)
   244fc:	900d883a 	mov	r6,r18
   24500:	980f883a 	mov	r7,r19
   24504:	002c6b80 	call	2c6b8 <__gedf2>
   24508:	00828d0e 	bge	zero,r2,24f40 <_dtoa_r+0xcd4>
   2450c:	d9000517 	ldw	r4,20(sp)
   24510:	d8000e15 	stw	zero,56(sp)
   24514:	213fffc4 	addi	r4,r4,-1
   24518:	d9000515 	stw	r4,20(sp)
   2451c:	b42dc83a 	sub	r22,r22,r16
   24520:	b5bfffc4 	addi	r22,r22,-1
   24524:	b0026f16 	blt	r22,zero,24ee4 <_dtoa_r+0xc78>
   24528:	d8000815 	stw	zero,32(sp)
   2452c:	d9c00517 	ldw	r7,20(sp)
   24530:	38026416 	blt	r7,zero,24ec4 <_dtoa_r+0xc58>
   24534:	b1ed883a 	add	r22,r22,r7
   24538:	d9c00d15 	stw	r7,52(sp)
   2453c:	d8000a15 	stw	zero,40(sp)
   24540:	d9800317 	ldw	r6,12(sp)
   24544:	00800244 	movi	r2,9
   24548:	11811436 	bltu	r2,r6,2499c <_dtoa_r+0x730>
   2454c:	00800144 	movi	r2,5
   24550:	1184e10e 	bge	r2,r6,258d8 <_dtoa_r+0x166c>
   24554:	31bfff04 	addi	r6,r6,-4
   24558:	d9800315 	stw	r6,12(sp)
   2455c:	0023883a 	mov	r17,zero
   24560:	d9800317 	ldw	r6,12(sp)
   24564:	008000c4 	movi	r2,3
   24568:	30836726 	beq	r6,r2,25308 <_dtoa_r+0x109c>
   2456c:	1183410e 	bge	r2,r6,25274 <_dtoa_r+0x1008>
   24570:	d9c00317 	ldw	r7,12(sp)
   24574:	00800104 	movi	r2,4
   24578:	38827c26 	beq	r7,r2,24f6c <_dtoa_r+0xd00>
   2457c:	00800144 	movi	r2,5
   24580:	3884c41e 	bne	r7,r2,25894 <_dtoa_r+0x1628>
   24584:	00800044 	movi	r2,1
   24588:	d8800b15 	stw	r2,44(sp)
   2458c:	d8c00517 	ldw	r3,20(sp)
   24590:	d9002217 	ldw	r4,136(sp)
   24594:	1907883a 	add	r3,r3,r4
   24598:	19800044 	addi	r6,r3,1
   2459c:	d8c00c15 	stw	r3,48(sp)
   245a0:	d9800615 	stw	r6,24(sp)
   245a4:	0183a40e 	bge	zero,r6,25438 <_dtoa_r+0x11cc>
   245a8:	d9800617 	ldw	r6,24(sp)
   245ac:	3021883a 	mov	r16,r6
   245b0:	e0001115 	stw	zero,68(fp)
   245b4:	008005c4 	movi	r2,23
   245b8:	1184c92e 	bgeu	r2,r6,258e0 <_dtoa_r+0x1674>
   245bc:	00c00044 	movi	r3,1
   245c0:	00800104 	movi	r2,4
   245c4:	1085883a 	add	r2,r2,r2
   245c8:	11000504 	addi	r4,r2,20
   245cc:	180b883a 	mov	r5,r3
   245d0:	18c00044 	addi	r3,r3,1
   245d4:	313ffb2e 	bgeu	r6,r4,245c4 <__alt_mem_MemoriaImagem1+0xfffc45c4>
   245d8:	e1401115 	stw	r5,68(fp)
   245dc:	e009883a 	mov	r4,fp
   245e0:	0026f940 	call	26f94 <_Balloc>
   245e4:	d8800715 	stw	r2,28(sp)
   245e8:	e0801015 	stw	r2,64(fp)
   245ec:	00800384 	movi	r2,14
   245f0:	1400f736 	bltu	r2,r16,249d0 <_dtoa_r+0x764>
   245f4:	8800f626 	beq	r17,zero,249d0 <_dtoa_r+0x764>
   245f8:	d9c00517 	ldw	r7,20(sp)
   245fc:	01c39a0e 	bge	zero,r7,25468 <_dtoa_r+0x11fc>
   24600:	388003cc 	andi	r2,r7,15
   24604:	100490fa 	slli	r2,r2,3
   24608:	382bd13a 	srai	r21,r7,4
   2460c:	00c000f4 	movhi	r3,3
   24610:	18c11304 	addi	r3,r3,1100
   24614:	1885883a 	add	r2,r3,r2
   24618:	a8c0040c 	andi	r3,r21,16
   2461c:	12400017 	ldw	r9,0(r2)
   24620:	12000117 	ldw	r8,4(r2)
   24624:	18037926 	beq	r3,zero,2540c <_dtoa_r+0x11a0>
   24628:	008000f4 	movhi	r2,3
   2462c:	10810904 	addi	r2,r2,1060
   24630:	11800817 	ldw	r6,32(r2)
   24634:	11c00917 	ldw	r7,36(r2)
   24638:	9009883a 	mov	r4,r18
   2463c:	980b883a 	mov	r5,r19
   24640:	da001715 	stw	r8,92(sp)
   24644:	da401615 	stw	r9,88(sp)
   24648:	002bc600 	call	2bc60 <__divdf3>
   2464c:	da001717 	ldw	r8,92(sp)
   24650:	da401617 	ldw	r9,88(sp)
   24654:	ad4003cc 	andi	r21,r21,15
   24658:	040000c4 	movi	r16,3
   2465c:	1023883a 	mov	r17,r2
   24660:	1829883a 	mov	r20,r3
   24664:	a8001126 	beq	r21,zero,246ac <_dtoa_r+0x440>
   24668:	05c000f4 	movhi	r23,3
   2466c:	bdc10904 	addi	r23,r23,1060
   24670:	4805883a 	mov	r2,r9
   24674:	4007883a 	mov	r3,r8
   24678:	a980004c 	andi	r6,r21,1
   2467c:	1009883a 	mov	r4,r2
   24680:	a82bd07a 	srai	r21,r21,1
   24684:	180b883a 	mov	r5,r3
   24688:	30000426 	beq	r6,zero,2469c <_dtoa_r+0x430>
   2468c:	b9800017 	ldw	r6,0(r23)
   24690:	b9c00117 	ldw	r7,4(r23)
   24694:	84000044 	addi	r16,r16,1
   24698:	002c8880 	call	2c888 <__muldf3>
   2469c:	bdc00204 	addi	r23,r23,8
   246a0:	a83ff51e 	bne	r21,zero,24678 <__alt_mem_MemoriaImagem1+0xfffc4678>
   246a4:	1013883a 	mov	r9,r2
   246a8:	1811883a 	mov	r8,r3
   246ac:	480d883a 	mov	r6,r9
   246b0:	400f883a 	mov	r7,r8
   246b4:	8809883a 	mov	r4,r17
   246b8:	a00b883a 	mov	r5,r20
   246bc:	002bc600 	call	2bc60 <__divdf3>
   246c0:	d8800f15 	stw	r2,60(sp)
   246c4:	d8c01015 	stw	r3,64(sp)
   246c8:	d8c00e17 	ldw	r3,56(sp)
   246cc:	18000626 	beq	r3,zero,246e8 <_dtoa_r+0x47c>
   246d0:	d9000f17 	ldw	r4,60(sp)
   246d4:	d9401017 	ldw	r5,64(sp)
   246d8:	000d883a 	mov	r6,zero
   246dc:	01cffc34 	movhi	r7,16368
   246e0:	002c7940 	call	2c794 <__ledf2>
   246e4:	10040b16 	blt	r2,zero,25714 <_dtoa_r+0x14a8>
   246e8:	8009883a 	mov	r4,r16
   246ec:	002da700 	call	2da70 <__floatsidf>
   246f0:	d9800f17 	ldw	r6,60(sp)
   246f4:	d9c01017 	ldw	r7,64(sp)
   246f8:	1009883a 	mov	r4,r2
   246fc:	180b883a 	mov	r5,r3
   24700:	002c8880 	call	2c888 <__muldf3>
   24704:	000d883a 	mov	r6,zero
   24708:	01d00734 	movhi	r7,16412
   2470c:	1009883a 	mov	r4,r2
   24710:	180b883a 	mov	r5,r3
   24714:	002b3b40 	call	2b3b4 <__adddf3>
   24718:	1021883a 	mov	r16,r2
   2471c:	d8800617 	ldw	r2,24(sp)
   24720:	047f3034 	movhi	r17,64704
   24724:	1c63883a 	add	r17,r3,r17
   24728:	10031826 	beq	r2,zero,2538c <_dtoa_r+0x1120>
   2472c:	d8c00517 	ldw	r3,20(sp)
   24730:	db000617 	ldw	r12,24(sp)
   24734:	d8c01315 	stw	r3,76(sp)
   24738:	d9000b17 	ldw	r4,44(sp)
   2473c:	20038f26 	beq	r4,zero,2557c <_dtoa_r+0x1310>
   24740:	60bfffc4 	addi	r2,r12,-1
   24744:	100490fa 	slli	r2,r2,3
   24748:	00c000f4 	movhi	r3,3
   2474c:	18c11304 	addi	r3,r3,1100
   24750:	1885883a 	add	r2,r3,r2
   24754:	11800017 	ldw	r6,0(r2)
   24758:	11c00117 	ldw	r7,4(r2)
   2475c:	d8800717 	ldw	r2,28(sp)
   24760:	0009883a 	mov	r4,zero
   24764:	014ff834 	movhi	r5,16352
   24768:	db001615 	stw	r12,88(sp)
   2476c:	15c00044 	addi	r23,r2,1
   24770:	002bc600 	call	2bc60 <__divdf3>
   24774:	800d883a 	mov	r6,r16
   24778:	880f883a 	mov	r7,r17
   2477c:	1009883a 	mov	r4,r2
   24780:	180b883a 	mov	r5,r3
   24784:	002d0f40 	call	2d0f4 <__subdf3>
   24788:	d9401017 	ldw	r5,64(sp)
   2478c:	d9000f17 	ldw	r4,60(sp)
   24790:	102b883a 	mov	r21,r2
   24794:	d8c01215 	stw	r3,72(sp)
   24798:	002d9f00 	call	2d9f0 <__fixdfsi>
   2479c:	1009883a 	mov	r4,r2
   247a0:	1029883a 	mov	r20,r2
   247a4:	002da700 	call	2da70 <__floatsidf>
   247a8:	d9000f17 	ldw	r4,60(sp)
   247ac:	d9401017 	ldw	r5,64(sp)
   247b0:	100d883a 	mov	r6,r2
   247b4:	180f883a 	mov	r7,r3
   247b8:	002d0f40 	call	2d0f4 <__subdf3>
   247bc:	1823883a 	mov	r17,r3
   247c0:	d8c00717 	ldw	r3,28(sp)
   247c4:	d9401217 	ldw	r5,72(sp)
   247c8:	a2000c04 	addi	r8,r20,48
   247cc:	1021883a 	mov	r16,r2
   247d0:	1a000005 	stb	r8,0(r3)
   247d4:	800d883a 	mov	r6,r16
   247d8:	880f883a 	mov	r7,r17
   247dc:	a809883a 	mov	r4,r21
   247e0:	4029883a 	mov	r20,r8
   247e4:	002c6b80 	call	2c6b8 <__gedf2>
   247e8:	00841d16 	blt	zero,r2,25860 <_dtoa_r+0x15f4>
   247ec:	800d883a 	mov	r6,r16
   247f0:	880f883a 	mov	r7,r17
   247f4:	0009883a 	mov	r4,zero
   247f8:	014ffc34 	movhi	r5,16368
   247fc:	002d0f40 	call	2d0f4 <__subdf3>
   24800:	d9401217 	ldw	r5,72(sp)
   24804:	100d883a 	mov	r6,r2
   24808:	180f883a 	mov	r7,r3
   2480c:	a809883a 	mov	r4,r21
   24810:	002c6b80 	call	2c6b8 <__gedf2>
   24814:	db001617 	ldw	r12,88(sp)
   24818:	00840e16 	blt	zero,r2,25854 <_dtoa_r+0x15e8>
   2481c:	00800044 	movi	r2,1
   24820:	13006b0e 	bge	r2,r12,249d0 <_dtoa_r+0x764>
   24824:	d9000717 	ldw	r4,28(sp)
   24828:	dd800f15 	stw	r22,60(sp)
   2482c:	dcc01015 	stw	r19,64(sp)
   24830:	2319883a 	add	r12,r4,r12
   24834:	dcc01217 	ldw	r19,72(sp)
   24838:	602d883a 	mov	r22,r12
   2483c:	dc801215 	stw	r18,72(sp)
   24840:	b825883a 	mov	r18,r23
   24844:	00000906 	br	2486c <_dtoa_r+0x600>
   24848:	002d0f40 	call	2d0f4 <__subdf3>
   2484c:	a80d883a 	mov	r6,r21
   24850:	980f883a 	mov	r7,r19
   24854:	1009883a 	mov	r4,r2
   24858:	180b883a 	mov	r5,r3
   2485c:	002c7940 	call	2c794 <__ledf2>
   24860:	1003e816 	blt	r2,zero,25804 <_dtoa_r+0x1598>
   24864:	b825883a 	mov	r18,r23
   24868:	bd83e926 	beq	r23,r22,25810 <_dtoa_r+0x15a4>
   2486c:	a809883a 	mov	r4,r21
   24870:	980b883a 	mov	r5,r19
   24874:	000d883a 	mov	r6,zero
   24878:	01d00934 	movhi	r7,16420
   2487c:	002c8880 	call	2c888 <__muldf3>
   24880:	000d883a 	mov	r6,zero
   24884:	01d00934 	movhi	r7,16420
   24888:	8009883a 	mov	r4,r16
   2488c:	880b883a 	mov	r5,r17
   24890:	102b883a 	mov	r21,r2
   24894:	1827883a 	mov	r19,r3
   24898:	002c8880 	call	2c888 <__muldf3>
   2489c:	180b883a 	mov	r5,r3
   248a0:	1009883a 	mov	r4,r2
   248a4:	1821883a 	mov	r16,r3
   248a8:	1023883a 	mov	r17,r2
   248ac:	002d9f00 	call	2d9f0 <__fixdfsi>
   248b0:	1009883a 	mov	r4,r2
   248b4:	1029883a 	mov	r20,r2
   248b8:	002da700 	call	2da70 <__floatsidf>
   248bc:	8809883a 	mov	r4,r17
   248c0:	800b883a 	mov	r5,r16
   248c4:	100d883a 	mov	r6,r2
   248c8:	180f883a 	mov	r7,r3
   248cc:	002d0f40 	call	2d0f4 <__subdf3>
   248d0:	a5000c04 	addi	r20,r20,48
   248d4:	a80d883a 	mov	r6,r21
   248d8:	980f883a 	mov	r7,r19
   248dc:	1009883a 	mov	r4,r2
   248e0:	180b883a 	mov	r5,r3
   248e4:	95000005 	stb	r20,0(r18)
   248e8:	1021883a 	mov	r16,r2
   248ec:	1823883a 	mov	r17,r3
   248f0:	002c7940 	call	2c794 <__ledf2>
   248f4:	bdc00044 	addi	r23,r23,1
   248f8:	800d883a 	mov	r6,r16
   248fc:	880f883a 	mov	r7,r17
   24900:	0009883a 	mov	r4,zero
   24904:	014ffc34 	movhi	r5,16368
   24908:	103fcf0e 	bge	r2,zero,24848 <__alt_mem_MemoriaImagem1+0xfffc4848>
   2490c:	d8c01317 	ldw	r3,76(sp)
   24910:	d8c00515 	stw	r3,20(sp)
   24914:	d9400917 	ldw	r5,36(sp)
   24918:	e009883a 	mov	r4,fp
   2491c:	002703c0 	call	2703c <_Bfree>
   24920:	d9000517 	ldw	r4,20(sp)
   24924:	d9802317 	ldw	r6,140(sp)
   24928:	d9c02517 	ldw	r7,148(sp)
   2492c:	b8000005 	stb	zero,0(r23)
   24930:	20800044 	addi	r2,r4,1
   24934:	30800015 	stw	r2,0(r6)
   24938:	3802aa26 	beq	r7,zero,253e4 <_dtoa_r+0x1178>
   2493c:	3dc00015 	stw	r23,0(r7)
   24940:	d8800717 	ldw	r2,28(sp)
   24944:	003e7906 	br	2432c <__alt_mem_MemoriaImagem1+0xfffc432c>
   24948:	00800434 	movhi	r2,16
   2494c:	10bfffc4 	addi	r2,r2,-1
   24950:	88a2703a 	and	r17,r17,r2
   24954:	883e851e 	bne	r17,zero,2436c <__alt_mem_MemoriaImagem1+0xfffc436c>
   24958:	008000f4 	movhi	r2,3
   2495c:	1080f504 	addi	r2,r2,980
   24960:	003e8406 	br	24374 <__alt_mem_MemoriaImagem1+0xfffc4374>
   24964:	10c00204 	addi	r3,r2,8
   24968:	003e8706 	br	24388 <__alt_mem_MemoriaImagem1+0xfffc4388>
   2496c:	01400434 	movhi	r5,16
   24970:	297fffc4 	addi	r5,r5,-1
   24974:	994a703a 	and	r5,r19,r5
   24978:	9009883a 	mov	r4,r18
   2497c:	843f0044 	addi	r16,r16,-1023
   24980:	294ffc34 	orhi	r5,r5,16368
   24984:	dd800217 	ldw	r22,8(sp)
   24988:	d8001115 	stw	zero,68(sp)
   2498c:	003ea506 	br	24424 <__alt_mem_MemoriaImagem1+0xfffc4424>
   24990:	008000f4 	movhi	r2,3
   24994:	1080ec04 	addi	r2,r2,944
   24998:	003e6406 	br	2432c <__alt_mem_MemoriaImagem1+0xfffc432c>
   2499c:	e0001115 	stw	zero,68(fp)
   249a0:	000b883a 	mov	r5,zero
   249a4:	e009883a 	mov	r4,fp
   249a8:	0026f940 	call	26f94 <_Balloc>
   249ac:	01bfffc4 	movi	r6,-1
   249b0:	01c00044 	movi	r7,1
   249b4:	d8800715 	stw	r2,28(sp)
   249b8:	d9800c15 	stw	r6,48(sp)
   249bc:	e0801015 	stw	r2,64(fp)
   249c0:	d8000315 	stw	zero,12(sp)
   249c4:	d9c00b15 	stw	r7,44(sp)
   249c8:	d9800615 	stw	r6,24(sp)
   249cc:	d8002215 	stw	zero,136(sp)
   249d0:	d8800117 	ldw	r2,4(sp)
   249d4:	10008916 	blt	r2,zero,24bfc <_dtoa_r+0x990>
   249d8:	d9000517 	ldw	r4,20(sp)
   249dc:	00c00384 	movi	r3,14
   249e0:	19008616 	blt	r3,r4,24bfc <_dtoa_r+0x990>
   249e4:	200490fa 	slli	r2,r4,3
   249e8:	00c000f4 	movhi	r3,3
   249ec:	d9802217 	ldw	r6,136(sp)
   249f0:	18c11304 	addi	r3,r3,1100
   249f4:	1885883a 	add	r2,r3,r2
   249f8:	14000017 	ldw	r16,0(r2)
   249fc:	14400117 	ldw	r17,4(r2)
   24a00:	30016316 	blt	r6,zero,24f90 <_dtoa_r+0xd24>
   24a04:	800d883a 	mov	r6,r16
   24a08:	880f883a 	mov	r7,r17
   24a0c:	9009883a 	mov	r4,r18
   24a10:	980b883a 	mov	r5,r19
   24a14:	002bc600 	call	2bc60 <__divdf3>
   24a18:	180b883a 	mov	r5,r3
   24a1c:	1009883a 	mov	r4,r2
   24a20:	002d9f00 	call	2d9f0 <__fixdfsi>
   24a24:	1009883a 	mov	r4,r2
   24a28:	102b883a 	mov	r21,r2
   24a2c:	002da700 	call	2da70 <__floatsidf>
   24a30:	800d883a 	mov	r6,r16
   24a34:	880f883a 	mov	r7,r17
   24a38:	1009883a 	mov	r4,r2
   24a3c:	180b883a 	mov	r5,r3
   24a40:	002c8880 	call	2c888 <__muldf3>
   24a44:	100d883a 	mov	r6,r2
   24a48:	180f883a 	mov	r7,r3
   24a4c:	9009883a 	mov	r4,r18
   24a50:	980b883a 	mov	r5,r19
   24a54:	002d0f40 	call	2d0f4 <__subdf3>
   24a58:	d9c00717 	ldw	r7,28(sp)
   24a5c:	1009883a 	mov	r4,r2
   24a60:	a8800c04 	addi	r2,r21,48
   24a64:	38800005 	stb	r2,0(r7)
   24a68:	3dc00044 	addi	r23,r7,1
   24a6c:	d9c00617 	ldw	r7,24(sp)
   24a70:	01800044 	movi	r6,1
   24a74:	180b883a 	mov	r5,r3
   24a78:	2005883a 	mov	r2,r4
   24a7c:	39803826 	beq	r7,r6,24b60 <_dtoa_r+0x8f4>
   24a80:	000d883a 	mov	r6,zero
   24a84:	01d00934 	movhi	r7,16420
   24a88:	002c8880 	call	2c888 <__muldf3>
   24a8c:	000d883a 	mov	r6,zero
   24a90:	000f883a 	mov	r7,zero
   24a94:	1009883a 	mov	r4,r2
   24a98:	180b883a 	mov	r5,r3
   24a9c:	1025883a 	mov	r18,r2
   24aa0:	1827883a 	mov	r19,r3
   24aa4:	002c6300 	call	2c630 <__eqdf2>
   24aa8:	103f9a26 	beq	r2,zero,24914 <__alt_mem_MemoriaImagem1+0xfffc4914>
   24aac:	d9c00617 	ldw	r7,24(sp)
   24ab0:	d8c00717 	ldw	r3,28(sp)
   24ab4:	b829883a 	mov	r20,r23
   24ab8:	38bfffc4 	addi	r2,r7,-1
   24abc:	18ad883a 	add	r22,r3,r2
   24ac0:	00000a06 	br	24aec <_dtoa_r+0x880>
   24ac4:	002c8880 	call	2c888 <__muldf3>
   24ac8:	000d883a 	mov	r6,zero
   24acc:	000f883a 	mov	r7,zero
   24ad0:	1009883a 	mov	r4,r2
   24ad4:	180b883a 	mov	r5,r3
   24ad8:	1025883a 	mov	r18,r2
   24adc:	1827883a 	mov	r19,r3
   24ae0:	b829883a 	mov	r20,r23
   24ae4:	002c6300 	call	2c630 <__eqdf2>
   24ae8:	103f8a26 	beq	r2,zero,24914 <__alt_mem_MemoriaImagem1+0xfffc4914>
   24aec:	800d883a 	mov	r6,r16
   24af0:	880f883a 	mov	r7,r17
   24af4:	9009883a 	mov	r4,r18
   24af8:	980b883a 	mov	r5,r19
   24afc:	002bc600 	call	2bc60 <__divdf3>
   24b00:	180b883a 	mov	r5,r3
   24b04:	1009883a 	mov	r4,r2
   24b08:	002d9f00 	call	2d9f0 <__fixdfsi>
   24b0c:	1009883a 	mov	r4,r2
   24b10:	102b883a 	mov	r21,r2
   24b14:	002da700 	call	2da70 <__floatsidf>
   24b18:	800d883a 	mov	r6,r16
   24b1c:	880f883a 	mov	r7,r17
   24b20:	1009883a 	mov	r4,r2
   24b24:	180b883a 	mov	r5,r3
   24b28:	002c8880 	call	2c888 <__muldf3>
   24b2c:	100d883a 	mov	r6,r2
   24b30:	180f883a 	mov	r7,r3
   24b34:	9009883a 	mov	r4,r18
   24b38:	980b883a 	mov	r5,r19
   24b3c:	002d0f40 	call	2d0f4 <__subdf3>
   24b40:	aa000c04 	addi	r8,r21,48
   24b44:	a2000005 	stb	r8,0(r20)
   24b48:	000d883a 	mov	r6,zero
   24b4c:	01d00934 	movhi	r7,16420
   24b50:	1009883a 	mov	r4,r2
   24b54:	180b883a 	mov	r5,r3
   24b58:	a5c00044 	addi	r23,r20,1
   24b5c:	b53fd91e 	bne	r22,r20,24ac4 <__alt_mem_MemoriaImagem1+0xfffc4ac4>
   24b60:	100d883a 	mov	r6,r2
   24b64:	180f883a 	mov	r7,r3
   24b68:	1009883a 	mov	r4,r2
   24b6c:	180b883a 	mov	r5,r3
   24b70:	002b3b40 	call	2b3b4 <__adddf3>
   24b74:	100d883a 	mov	r6,r2
   24b78:	180f883a 	mov	r7,r3
   24b7c:	8009883a 	mov	r4,r16
   24b80:	880b883a 	mov	r5,r17
   24b84:	1027883a 	mov	r19,r2
   24b88:	1825883a 	mov	r18,r3
   24b8c:	002c7940 	call	2c794 <__ledf2>
   24b90:	10000816 	blt	r2,zero,24bb4 <_dtoa_r+0x948>
   24b94:	980d883a 	mov	r6,r19
   24b98:	900f883a 	mov	r7,r18
   24b9c:	8009883a 	mov	r4,r16
   24ba0:	880b883a 	mov	r5,r17
   24ba4:	002c6300 	call	2c630 <__eqdf2>
   24ba8:	103f5a1e 	bne	r2,zero,24914 <__alt_mem_MemoriaImagem1+0xfffc4914>
   24bac:	ad40004c 	andi	r21,r21,1
   24bb0:	a83f5826 	beq	r21,zero,24914 <__alt_mem_MemoriaImagem1+0xfffc4914>
   24bb4:	bd3fffc3 	ldbu	r20,-1(r23)
   24bb8:	b8bfffc4 	addi	r2,r23,-1
   24bbc:	1007883a 	mov	r3,r2
   24bc0:	01400e44 	movi	r5,57
   24bc4:	d9800717 	ldw	r6,28(sp)
   24bc8:	00000506 	br	24be0 <_dtoa_r+0x974>
   24bcc:	18ffffc4 	addi	r3,r3,-1
   24bd0:	11824726 	beq	r2,r6,254f0 <_dtoa_r+0x1284>
   24bd4:	1d000003 	ldbu	r20,0(r3)
   24bd8:	102f883a 	mov	r23,r2
   24bdc:	10bfffc4 	addi	r2,r2,-1
   24be0:	a1003fcc 	andi	r4,r20,255
   24be4:	2100201c 	xori	r4,r4,128
   24be8:	213fe004 	addi	r4,r4,-128
   24bec:	217ff726 	beq	r4,r5,24bcc <__alt_mem_MemoriaImagem1+0xfffc4bcc>
   24bf0:	a2000044 	addi	r8,r20,1
   24bf4:	12000005 	stb	r8,0(r2)
   24bf8:	003f4606 	br	24914 <__alt_mem_MemoriaImagem1+0xfffc4914>
   24bfc:	d9000b17 	ldw	r4,44(sp)
   24c00:	2000c826 	beq	r4,zero,24f24 <_dtoa_r+0xcb8>
   24c04:	d9800317 	ldw	r6,12(sp)
   24c08:	00c00044 	movi	r3,1
   24c0c:	1980f90e 	bge	r3,r6,24ff4 <_dtoa_r+0xd88>
   24c10:	d8800617 	ldw	r2,24(sp)
   24c14:	d8c00a17 	ldw	r3,40(sp)
   24c18:	157fffc4 	addi	r21,r2,-1
   24c1c:	1d41f316 	blt	r3,r21,253ec <_dtoa_r+0x1180>
   24c20:	1d6bc83a 	sub	r21,r3,r21
   24c24:	d9c00617 	ldw	r7,24(sp)
   24c28:	3802aa16 	blt	r7,zero,256d4 <_dtoa_r+0x1468>
   24c2c:	dd000817 	ldw	r20,32(sp)
   24c30:	d8800617 	ldw	r2,24(sp)
   24c34:	d8c00817 	ldw	r3,32(sp)
   24c38:	01400044 	movi	r5,1
   24c3c:	e009883a 	mov	r4,fp
   24c40:	1887883a 	add	r3,r3,r2
   24c44:	d8c00815 	stw	r3,32(sp)
   24c48:	b0ad883a 	add	r22,r22,r2
   24c4c:	00273c80 	call	273c8 <__i2b>
   24c50:	1023883a 	mov	r17,r2
   24c54:	a0000826 	beq	r20,zero,24c78 <_dtoa_r+0xa0c>
   24c58:	0580070e 	bge	zero,r22,24c78 <_dtoa_r+0xa0c>
   24c5c:	a005883a 	mov	r2,r20
   24c60:	b500b916 	blt	r22,r20,24f48 <_dtoa_r+0xcdc>
   24c64:	d9000817 	ldw	r4,32(sp)
   24c68:	a0a9c83a 	sub	r20,r20,r2
   24c6c:	b0adc83a 	sub	r22,r22,r2
   24c70:	2089c83a 	sub	r4,r4,r2
   24c74:	d9000815 	stw	r4,32(sp)
   24c78:	d9800a17 	ldw	r6,40(sp)
   24c7c:	0181810e 	bge	zero,r6,25284 <_dtoa_r+0x1018>
   24c80:	d9c00b17 	ldw	r7,44(sp)
   24c84:	3800b326 	beq	r7,zero,24f54 <_dtoa_r+0xce8>
   24c88:	a800b226 	beq	r21,zero,24f54 <_dtoa_r+0xce8>
   24c8c:	880b883a 	mov	r5,r17
   24c90:	a80d883a 	mov	r6,r21
   24c94:	e009883a 	mov	r4,fp
   24c98:	00276900 	call	27690 <__pow5mult>
   24c9c:	d9800917 	ldw	r6,36(sp)
   24ca0:	100b883a 	mov	r5,r2
   24ca4:	e009883a 	mov	r4,fp
   24ca8:	1023883a 	mov	r17,r2
   24cac:	00274040 	call	27404 <__multiply>
   24cb0:	1021883a 	mov	r16,r2
   24cb4:	d8800a17 	ldw	r2,40(sp)
   24cb8:	d9400917 	ldw	r5,36(sp)
   24cbc:	e009883a 	mov	r4,fp
   24cc0:	1545c83a 	sub	r2,r2,r21
   24cc4:	d8800a15 	stw	r2,40(sp)
   24cc8:	002703c0 	call	2703c <_Bfree>
   24ccc:	d8c00a17 	ldw	r3,40(sp)
   24cd0:	18009f1e 	bne	r3,zero,24f50 <_dtoa_r+0xce4>
   24cd4:	05c00044 	movi	r23,1
   24cd8:	e009883a 	mov	r4,fp
   24cdc:	b80b883a 	mov	r5,r23
   24ce0:	00273c80 	call	273c8 <__i2b>
   24ce4:	d9000d17 	ldw	r4,52(sp)
   24ce8:	102b883a 	mov	r21,r2
   24cec:	2000ce26 	beq	r4,zero,25028 <_dtoa_r+0xdbc>
   24cf0:	200d883a 	mov	r6,r4
   24cf4:	100b883a 	mov	r5,r2
   24cf8:	e009883a 	mov	r4,fp
   24cfc:	00276900 	call	27690 <__pow5mult>
   24d00:	d9800317 	ldw	r6,12(sp)
   24d04:	102b883a 	mov	r21,r2
   24d08:	b981810e 	bge	r23,r6,25310 <_dtoa_r+0x10a4>
   24d0c:	0027883a 	mov	r19,zero
   24d10:	a8800417 	ldw	r2,16(r21)
   24d14:	05c00804 	movi	r23,32
   24d18:	10800104 	addi	r2,r2,4
   24d1c:	1085883a 	add	r2,r2,r2
   24d20:	1085883a 	add	r2,r2,r2
   24d24:	a885883a 	add	r2,r21,r2
   24d28:	11000017 	ldw	r4,0(r2)
   24d2c:	00272b00 	call	272b0 <__hi0bits>
   24d30:	b885c83a 	sub	r2,r23,r2
   24d34:	1585883a 	add	r2,r2,r22
   24d38:	108007cc 	andi	r2,r2,31
   24d3c:	1000b326 	beq	r2,zero,2500c <_dtoa_r+0xda0>
   24d40:	00c00804 	movi	r3,32
   24d44:	1887c83a 	sub	r3,r3,r2
   24d48:	01000104 	movi	r4,4
   24d4c:	20c2cd0e 	bge	r4,r3,25884 <_dtoa_r+0x1618>
   24d50:	00c00704 	movi	r3,28
   24d54:	1885c83a 	sub	r2,r3,r2
   24d58:	d8c00817 	ldw	r3,32(sp)
   24d5c:	a0a9883a 	add	r20,r20,r2
   24d60:	b0ad883a 	add	r22,r22,r2
   24d64:	1887883a 	add	r3,r3,r2
   24d68:	d8c00815 	stw	r3,32(sp)
   24d6c:	d9800817 	ldw	r6,32(sp)
   24d70:	0180040e 	bge	zero,r6,24d84 <_dtoa_r+0xb18>
   24d74:	800b883a 	mov	r5,r16
   24d78:	e009883a 	mov	r4,fp
   24d7c:	00277d00 	call	277d0 <__lshift>
   24d80:	1021883a 	mov	r16,r2
   24d84:	0580050e 	bge	zero,r22,24d9c <_dtoa_r+0xb30>
   24d88:	a80b883a 	mov	r5,r21
   24d8c:	b00d883a 	mov	r6,r22
   24d90:	e009883a 	mov	r4,fp
   24d94:	00277d00 	call	277d0 <__lshift>
   24d98:	102b883a 	mov	r21,r2
   24d9c:	d9c00e17 	ldw	r7,56(sp)
   24da0:	3801211e 	bne	r7,zero,25228 <_dtoa_r+0xfbc>
   24da4:	d9800617 	ldw	r6,24(sp)
   24da8:	0181380e 	bge	zero,r6,2528c <_dtoa_r+0x1020>
   24dac:	d8c00b17 	ldw	r3,44(sp)
   24db0:	1800ab1e 	bne	r3,zero,25060 <_dtoa_r+0xdf4>
   24db4:	dc800717 	ldw	r18,28(sp)
   24db8:	dcc00617 	ldw	r19,24(sp)
   24dbc:	9029883a 	mov	r20,r18
   24dc0:	00000206 	br	24dcc <_dtoa_r+0xb60>
   24dc4:	00270640 	call	27064 <__multadd>
   24dc8:	1021883a 	mov	r16,r2
   24dcc:	a80b883a 	mov	r5,r21
   24dd0:	8009883a 	mov	r4,r16
   24dd4:	00240440 	call	24044 <quorem>
   24dd8:	10800c04 	addi	r2,r2,48
   24ddc:	90800005 	stb	r2,0(r18)
   24de0:	94800044 	addi	r18,r18,1
   24de4:	9507c83a 	sub	r3,r18,r20
   24de8:	000f883a 	mov	r7,zero
   24dec:	01800284 	movi	r6,10
   24df0:	800b883a 	mov	r5,r16
   24df4:	e009883a 	mov	r4,fp
   24df8:	1cfff216 	blt	r3,r19,24dc4 <__alt_mem_MemoriaImagem1+0xfffc4dc4>
   24dfc:	1011883a 	mov	r8,r2
   24e00:	d8800617 	ldw	r2,24(sp)
   24e04:	0082370e 	bge	zero,r2,256e4 <_dtoa_r+0x1478>
   24e08:	d9000717 	ldw	r4,28(sp)
   24e0c:	0025883a 	mov	r18,zero
   24e10:	20af883a 	add	r23,r4,r2
   24e14:	01800044 	movi	r6,1
   24e18:	800b883a 	mov	r5,r16
   24e1c:	e009883a 	mov	r4,fp
   24e20:	da001715 	stw	r8,92(sp)
   24e24:	00277d00 	call	277d0 <__lshift>
   24e28:	a80b883a 	mov	r5,r21
   24e2c:	1009883a 	mov	r4,r2
   24e30:	d8800915 	stw	r2,36(sp)
   24e34:	00279180 	call	27918 <__mcmp>
   24e38:	da001717 	ldw	r8,92(sp)
   24e3c:	0081800e 	bge	zero,r2,25440 <_dtoa_r+0x11d4>
   24e40:	b93fffc3 	ldbu	r4,-1(r23)
   24e44:	b8bfffc4 	addi	r2,r23,-1
   24e48:	1007883a 	mov	r3,r2
   24e4c:	01800e44 	movi	r6,57
   24e50:	d9c00717 	ldw	r7,28(sp)
   24e54:	00000506 	br	24e6c <_dtoa_r+0xc00>
   24e58:	18ffffc4 	addi	r3,r3,-1
   24e5c:	11c12326 	beq	r2,r7,252ec <_dtoa_r+0x1080>
   24e60:	19000003 	ldbu	r4,0(r3)
   24e64:	102f883a 	mov	r23,r2
   24e68:	10bfffc4 	addi	r2,r2,-1
   24e6c:	21403fcc 	andi	r5,r4,255
   24e70:	2940201c 	xori	r5,r5,128
   24e74:	297fe004 	addi	r5,r5,-128
   24e78:	29bff726 	beq	r5,r6,24e58 <__alt_mem_MemoriaImagem1+0xfffc4e58>
   24e7c:	21000044 	addi	r4,r4,1
   24e80:	11000005 	stb	r4,0(r2)
   24e84:	a80b883a 	mov	r5,r21
   24e88:	e009883a 	mov	r4,fp
   24e8c:	002703c0 	call	2703c <_Bfree>
   24e90:	883ea026 	beq	r17,zero,24914 <__alt_mem_MemoriaImagem1+0xfffc4914>
   24e94:	90000426 	beq	r18,zero,24ea8 <_dtoa_r+0xc3c>
   24e98:	94400326 	beq	r18,r17,24ea8 <_dtoa_r+0xc3c>
   24e9c:	900b883a 	mov	r5,r18
   24ea0:	e009883a 	mov	r4,fp
   24ea4:	002703c0 	call	2703c <_Bfree>
   24ea8:	880b883a 	mov	r5,r17
   24eac:	e009883a 	mov	r4,fp
   24eb0:	002703c0 	call	2703c <_Bfree>
   24eb4:	003e9706 	br	24914 <__alt_mem_MemoriaImagem1+0xfffc4914>
   24eb8:	01800044 	movi	r6,1
   24ebc:	d9800e15 	stw	r6,56(sp)
   24ec0:	003d9606 	br	2451c <__alt_mem_MemoriaImagem1+0xfffc451c>
   24ec4:	d8800817 	ldw	r2,32(sp)
   24ec8:	d8c00517 	ldw	r3,20(sp)
   24ecc:	d8000d15 	stw	zero,52(sp)
   24ed0:	10c5c83a 	sub	r2,r2,r3
   24ed4:	00c9c83a 	sub	r4,zero,r3
   24ed8:	d8800815 	stw	r2,32(sp)
   24edc:	d9000a15 	stw	r4,40(sp)
   24ee0:	003d9706 	br	24540 <__alt_mem_MemoriaImagem1+0xfffc4540>
   24ee4:	05adc83a 	sub	r22,zero,r22
   24ee8:	dd800815 	stw	r22,32(sp)
   24eec:	002d883a 	mov	r22,zero
   24ef0:	003d8e06 	br	2452c <__alt_mem_MemoriaImagem1+0xfffc452c>
   24ef4:	d9000517 	ldw	r4,20(sp)
   24ef8:	002da700 	call	2da70 <__floatsidf>
   24efc:	100d883a 	mov	r6,r2
   24f00:	180f883a 	mov	r7,r3
   24f04:	a009883a 	mov	r4,r20
   24f08:	880b883a 	mov	r5,r17
   24f0c:	002c6300 	call	2c630 <__eqdf2>
   24f10:	103d7126 	beq	r2,zero,244d8 <__alt_mem_MemoriaImagem1+0xfffc44d8>
   24f14:	d9c00517 	ldw	r7,20(sp)
   24f18:	39ffffc4 	addi	r7,r7,-1
   24f1c:	d9c00515 	stw	r7,20(sp)
   24f20:	003d6d06 	br	244d8 <__alt_mem_MemoriaImagem1+0xfffc44d8>
   24f24:	dd400a17 	ldw	r21,40(sp)
   24f28:	dd000817 	ldw	r20,32(sp)
   24f2c:	0023883a 	mov	r17,zero
   24f30:	003f4806 	br	24c54 <__alt_mem_MemoriaImagem1+0xfffc4c54>
   24f34:	10e3c83a 	sub	r17,r2,r3
   24f38:	9448983a 	sll	r4,r18,r17
   24f3c:	003d3206 	br	24408 <__alt_mem_MemoriaImagem1+0xfffc4408>
   24f40:	d8000e15 	stw	zero,56(sp)
   24f44:	003d7506 	br	2451c <__alt_mem_MemoriaImagem1+0xfffc451c>
   24f48:	b005883a 	mov	r2,r22
   24f4c:	003f4506 	br	24c64 <__alt_mem_MemoriaImagem1+0xfffc4c64>
   24f50:	dc000915 	stw	r16,36(sp)
   24f54:	d9800a17 	ldw	r6,40(sp)
   24f58:	d9400917 	ldw	r5,36(sp)
   24f5c:	e009883a 	mov	r4,fp
   24f60:	00276900 	call	27690 <__pow5mult>
   24f64:	1021883a 	mov	r16,r2
   24f68:	003f5a06 	br	24cd4 <__alt_mem_MemoriaImagem1+0xfffc4cd4>
   24f6c:	01c00044 	movi	r7,1
   24f70:	d9c00b15 	stw	r7,44(sp)
   24f74:	d8802217 	ldw	r2,136(sp)
   24f78:	0081280e 	bge	zero,r2,2541c <_dtoa_r+0x11b0>
   24f7c:	100d883a 	mov	r6,r2
   24f80:	1021883a 	mov	r16,r2
   24f84:	d8800c15 	stw	r2,48(sp)
   24f88:	d8800615 	stw	r2,24(sp)
   24f8c:	003d8806 	br	245b0 <__alt_mem_MemoriaImagem1+0xfffc45b0>
   24f90:	d8800617 	ldw	r2,24(sp)
   24f94:	00be9b16 	blt	zero,r2,24a04 <__alt_mem_MemoriaImagem1+0xfffc4a04>
   24f98:	10010f1e 	bne	r2,zero,253d8 <_dtoa_r+0x116c>
   24f9c:	880b883a 	mov	r5,r17
   24fa0:	000d883a 	mov	r6,zero
   24fa4:	01d00534 	movhi	r7,16404
   24fa8:	8009883a 	mov	r4,r16
   24fac:	002c8880 	call	2c888 <__muldf3>
   24fb0:	900d883a 	mov	r6,r18
   24fb4:	980f883a 	mov	r7,r19
   24fb8:	1009883a 	mov	r4,r2
   24fbc:	180b883a 	mov	r5,r3
   24fc0:	002c6b80 	call	2c6b8 <__gedf2>
   24fc4:	002b883a 	mov	r21,zero
   24fc8:	0023883a 	mov	r17,zero
   24fcc:	1000bf16 	blt	r2,zero,252cc <_dtoa_r+0x1060>
   24fd0:	d9802217 	ldw	r6,136(sp)
   24fd4:	ddc00717 	ldw	r23,28(sp)
   24fd8:	018c303a 	nor	r6,zero,r6
   24fdc:	d9800515 	stw	r6,20(sp)
   24fe0:	a80b883a 	mov	r5,r21
   24fe4:	e009883a 	mov	r4,fp
   24fe8:	002703c0 	call	2703c <_Bfree>
   24fec:	883e4926 	beq	r17,zero,24914 <__alt_mem_MemoriaImagem1+0xfffc4914>
   24ff0:	003fad06 	br	24ea8 <__alt_mem_MemoriaImagem1+0xfffc4ea8>
   24ff4:	d9c01117 	ldw	r7,68(sp)
   24ff8:	3801bc26 	beq	r7,zero,256ec <_dtoa_r+0x1480>
   24ffc:	10810cc4 	addi	r2,r2,1075
   25000:	dd400a17 	ldw	r21,40(sp)
   25004:	dd000817 	ldw	r20,32(sp)
   25008:	003f0a06 	br	24c34 <__alt_mem_MemoriaImagem1+0xfffc4c34>
   2500c:	00800704 	movi	r2,28
   25010:	d9000817 	ldw	r4,32(sp)
   25014:	a0a9883a 	add	r20,r20,r2
   25018:	b0ad883a 	add	r22,r22,r2
   2501c:	2089883a 	add	r4,r4,r2
   25020:	d9000815 	stw	r4,32(sp)
   25024:	003f5106 	br	24d6c <__alt_mem_MemoriaImagem1+0xfffc4d6c>
   25028:	d8c00317 	ldw	r3,12(sp)
   2502c:	b8c1fc0e 	bge	r23,r3,25820 <_dtoa_r+0x15b4>
   25030:	0027883a 	mov	r19,zero
   25034:	b805883a 	mov	r2,r23
   25038:	003f3e06 	br	24d34 <__alt_mem_MemoriaImagem1+0xfffc4d34>
   2503c:	880b883a 	mov	r5,r17
   25040:	e009883a 	mov	r4,fp
   25044:	000f883a 	mov	r7,zero
   25048:	01800284 	movi	r6,10
   2504c:	00270640 	call	27064 <__multadd>
   25050:	d9000c17 	ldw	r4,48(sp)
   25054:	1023883a 	mov	r17,r2
   25058:	0102040e 	bge	zero,r4,2586c <_dtoa_r+0x1600>
   2505c:	d9000615 	stw	r4,24(sp)
   25060:	0500050e 	bge	zero,r20,25078 <_dtoa_r+0xe0c>
   25064:	880b883a 	mov	r5,r17
   25068:	a00d883a 	mov	r6,r20
   2506c:	e009883a 	mov	r4,fp
   25070:	00277d00 	call	277d0 <__lshift>
   25074:	1023883a 	mov	r17,r2
   25078:	9801241e 	bne	r19,zero,2550c <_dtoa_r+0x12a0>
   2507c:	8829883a 	mov	r20,r17
   25080:	d9000617 	ldw	r4,24(sp)
   25084:	dcc00717 	ldw	r19,28(sp)
   25088:	9480004c 	andi	r18,r18,1
   2508c:	20bfffc4 	addi	r2,r4,-1
   25090:	9885883a 	add	r2,r19,r2
   25094:	d8800415 	stw	r2,16(sp)
   25098:	dc800615 	stw	r18,24(sp)
   2509c:	a80b883a 	mov	r5,r21
   250a0:	8009883a 	mov	r4,r16
   250a4:	00240440 	call	24044 <quorem>
   250a8:	880b883a 	mov	r5,r17
   250ac:	8009883a 	mov	r4,r16
   250b0:	102f883a 	mov	r23,r2
   250b4:	00279180 	call	27918 <__mcmp>
   250b8:	a80b883a 	mov	r5,r21
   250bc:	a00d883a 	mov	r6,r20
   250c0:	e009883a 	mov	r4,fp
   250c4:	102d883a 	mov	r22,r2
   250c8:	00279780 	call	27978 <__mdiff>
   250cc:	1007883a 	mov	r3,r2
   250d0:	10800317 	ldw	r2,12(r2)
   250d4:	bc800c04 	addi	r18,r23,48
   250d8:	180b883a 	mov	r5,r3
   250dc:	10004e1e 	bne	r2,zero,25218 <_dtoa_r+0xfac>
   250e0:	8009883a 	mov	r4,r16
   250e4:	d8c01615 	stw	r3,88(sp)
   250e8:	00279180 	call	27918 <__mcmp>
   250ec:	d8c01617 	ldw	r3,88(sp)
   250f0:	e009883a 	mov	r4,fp
   250f4:	d8801615 	stw	r2,88(sp)
   250f8:	180b883a 	mov	r5,r3
   250fc:	002703c0 	call	2703c <_Bfree>
   25100:	d8801617 	ldw	r2,88(sp)
   25104:	1000041e 	bne	r2,zero,25118 <_dtoa_r+0xeac>
   25108:	d9800317 	ldw	r6,12(sp)
   2510c:	3000021e 	bne	r6,zero,25118 <_dtoa_r+0xeac>
   25110:	d8c00617 	ldw	r3,24(sp)
   25114:	18003726 	beq	r3,zero,251f4 <_dtoa_r+0xf88>
   25118:	b0002016 	blt	r22,zero,2519c <_dtoa_r+0xf30>
   2511c:	b000041e 	bne	r22,zero,25130 <_dtoa_r+0xec4>
   25120:	d9000317 	ldw	r4,12(sp)
   25124:	2000021e 	bne	r4,zero,25130 <_dtoa_r+0xec4>
   25128:	d8c00617 	ldw	r3,24(sp)
   2512c:	18001b26 	beq	r3,zero,2519c <_dtoa_r+0xf30>
   25130:	00810716 	blt	zero,r2,25550 <_dtoa_r+0x12e4>
   25134:	d8c00417 	ldw	r3,16(sp)
   25138:	9d800044 	addi	r22,r19,1
   2513c:	9c800005 	stb	r18,0(r19)
   25140:	b02f883a 	mov	r23,r22
   25144:	98c10626 	beq	r19,r3,25560 <_dtoa_r+0x12f4>
   25148:	800b883a 	mov	r5,r16
   2514c:	000f883a 	mov	r7,zero
   25150:	01800284 	movi	r6,10
   25154:	e009883a 	mov	r4,fp
   25158:	00270640 	call	27064 <__multadd>
   2515c:	1021883a 	mov	r16,r2
   25160:	000f883a 	mov	r7,zero
   25164:	01800284 	movi	r6,10
   25168:	880b883a 	mov	r5,r17
   2516c:	e009883a 	mov	r4,fp
   25170:	8d002526 	beq	r17,r20,25208 <_dtoa_r+0xf9c>
   25174:	00270640 	call	27064 <__multadd>
   25178:	a00b883a 	mov	r5,r20
   2517c:	000f883a 	mov	r7,zero
   25180:	01800284 	movi	r6,10
   25184:	e009883a 	mov	r4,fp
   25188:	1023883a 	mov	r17,r2
   2518c:	00270640 	call	27064 <__multadd>
   25190:	1029883a 	mov	r20,r2
   25194:	b027883a 	mov	r19,r22
   25198:	003fc006 	br	2509c <__alt_mem_MemoriaImagem1+0xfffc509c>
   2519c:	9011883a 	mov	r8,r18
   251a0:	00800e0e 	bge	zero,r2,251dc <_dtoa_r+0xf70>
   251a4:	800b883a 	mov	r5,r16
   251a8:	01800044 	movi	r6,1
   251ac:	e009883a 	mov	r4,fp
   251b0:	da001715 	stw	r8,92(sp)
   251b4:	00277d00 	call	277d0 <__lshift>
   251b8:	a80b883a 	mov	r5,r21
   251bc:	1009883a 	mov	r4,r2
   251c0:	1021883a 	mov	r16,r2
   251c4:	00279180 	call	27918 <__mcmp>
   251c8:	da001717 	ldw	r8,92(sp)
   251cc:	0081960e 	bge	zero,r2,25828 <_dtoa_r+0x15bc>
   251d0:	00800e44 	movi	r2,57
   251d4:	40817026 	beq	r8,r2,25798 <_dtoa_r+0x152c>
   251d8:	ba000c44 	addi	r8,r23,49
   251dc:	8825883a 	mov	r18,r17
   251e0:	9dc00044 	addi	r23,r19,1
   251e4:	9a000005 	stb	r8,0(r19)
   251e8:	a023883a 	mov	r17,r20
   251ec:	dc000915 	stw	r16,36(sp)
   251f0:	003f2406 	br	24e84 <__alt_mem_MemoriaImagem1+0xfffc4e84>
   251f4:	00800e44 	movi	r2,57
   251f8:	9011883a 	mov	r8,r18
   251fc:	90816626 	beq	r18,r2,25798 <_dtoa_r+0x152c>
   25200:	05bff516 	blt	zero,r22,251d8 <__alt_mem_MemoriaImagem1+0xfffc51d8>
   25204:	003ff506 	br	251dc <__alt_mem_MemoriaImagem1+0xfffc51dc>
   25208:	00270640 	call	27064 <__multadd>
   2520c:	1023883a 	mov	r17,r2
   25210:	1029883a 	mov	r20,r2
   25214:	003fdf06 	br	25194 <__alt_mem_MemoriaImagem1+0xfffc5194>
   25218:	e009883a 	mov	r4,fp
   2521c:	002703c0 	call	2703c <_Bfree>
   25220:	00800044 	movi	r2,1
   25224:	003fbc06 	br	25118 <__alt_mem_MemoriaImagem1+0xfffc5118>
   25228:	a80b883a 	mov	r5,r21
   2522c:	8009883a 	mov	r4,r16
   25230:	00279180 	call	27918 <__mcmp>
   25234:	103edb0e 	bge	r2,zero,24da4 <__alt_mem_MemoriaImagem1+0xfffc4da4>
   25238:	800b883a 	mov	r5,r16
   2523c:	000f883a 	mov	r7,zero
   25240:	01800284 	movi	r6,10
   25244:	e009883a 	mov	r4,fp
   25248:	00270640 	call	27064 <__multadd>
   2524c:	1021883a 	mov	r16,r2
   25250:	d8800517 	ldw	r2,20(sp)
   25254:	d8c00b17 	ldw	r3,44(sp)
   25258:	10bfffc4 	addi	r2,r2,-1
   2525c:	d8800515 	stw	r2,20(sp)
   25260:	183f761e 	bne	r3,zero,2503c <__alt_mem_MemoriaImagem1+0xfffc503c>
   25264:	d9000c17 	ldw	r4,48(sp)
   25268:	0101730e 	bge	zero,r4,25838 <_dtoa_r+0x15cc>
   2526c:	d9000615 	stw	r4,24(sp)
   25270:	003ed006 	br	24db4 <__alt_mem_MemoriaImagem1+0xfffc4db4>
   25274:	00800084 	movi	r2,2
   25278:	3081861e 	bne	r6,r2,25894 <_dtoa_r+0x1628>
   2527c:	d8000b15 	stw	zero,44(sp)
   25280:	003f3c06 	br	24f74 <__alt_mem_MemoriaImagem1+0xfffc4f74>
   25284:	dc000917 	ldw	r16,36(sp)
   25288:	003e9206 	br	24cd4 <__alt_mem_MemoriaImagem1+0xfffc4cd4>
   2528c:	d9c00317 	ldw	r7,12(sp)
   25290:	00800084 	movi	r2,2
   25294:	11fec50e 	bge	r2,r7,24dac <__alt_mem_MemoriaImagem1+0xfffc4dac>
   25298:	d9000617 	ldw	r4,24(sp)
   2529c:	20013c1e 	bne	r4,zero,25790 <_dtoa_r+0x1524>
   252a0:	a80b883a 	mov	r5,r21
   252a4:	000f883a 	mov	r7,zero
   252a8:	01800144 	movi	r6,5
   252ac:	e009883a 	mov	r4,fp
   252b0:	00270640 	call	27064 <__multadd>
   252b4:	100b883a 	mov	r5,r2
   252b8:	8009883a 	mov	r4,r16
   252bc:	102b883a 	mov	r21,r2
   252c0:	00279180 	call	27918 <__mcmp>
   252c4:	dc000915 	stw	r16,36(sp)
   252c8:	00bf410e 	bge	zero,r2,24fd0 <__alt_mem_MemoriaImagem1+0xfffc4fd0>
   252cc:	d9c00717 	ldw	r7,28(sp)
   252d0:	00800c44 	movi	r2,49
   252d4:	38800005 	stb	r2,0(r7)
   252d8:	d8800517 	ldw	r2,20(sp)
   252dc:	3dc00044 	addi	r23,r7,1
   252e0:	10800044 	addi	r2,r2,1
   252e4:	d8800515 	stw	r2,20(sp)
   252e8:	003f3d06 	br	24fe0 <__alt_mem_MemoriaImagem1+0xfffc4fe0>
   252ec:	d9800517 	ldw	r6,20(sp)
   252f0:	d9c00717 	ldw	r7,28(sp)
   252f4:	00800c44 	movi	r2,49
   252f8:	31800044 	addi	r6,r6,1
   252fc:	d9800515 	stw	r6,20(sp)
   25300:	38800005 	stb	r2,0(r7)
   25304:	003edf06 	br	24e84 <__alt_mem_MemoriaImagem1+0xfffc4e84>
   25308:	d8000b15 	stw	zero,44(sp)
   2530c:	003c9f06 	br	2458c <__alt_mem_MemoriaImagem1+0xfffc458c>
   25310:	903e7e1e 	bne	r18,zero,24d0c <__alt_mem_MemoriaImagem1+0xfffc4d0c>
   25314:	00800434 	movhi	r2,16
   25318:	10bfffc4 	addi	r2,r2,-1
   2531c:	9884703a 	and	r2,r19,r2
   25320:	1000ea1e 	bne	r2,zero,256cc <_dtoa_r+0x1460>
   25324:	9cdffc2c 	andhi	r19,r19,32752
   25328:	9800e826 	beq	r19,zero,256cc <_dtoa_r+0x1460>
   2532c:	d9c00817 	ldw	r7,32(sp)
   25330:	b5800044 	addi	r22,r22,1
   25334:	04c00044 	movi	r19,1
   25338:	39c00044 	addi	r7,r7,1
   2533c:	d9c00815 	stw	r7,32(sp)
   25340:	d8800d17 	ldw	r2,52(sp)
   25344:	103e721e 	bne	r2,zero,24d10 <__alt_mem_MemoriaImagem1+0xfffc4d10>
   25348:	00800044 	movi	r2,1
   2534c:	003e7906 	br	24d34 <__alt_mem_MemoriaImagem1+0xfffc4d34>
   25350:	8009883a 	mov	r4,r16
   25354:	002da700 	call	2da70 <__floatsidf>
   25358:	d9800f17 	ldw	r6,60(sp)
   2535c:	d9c01017 	ldw	r7,64(sp)
   25360:	1009883a 	mov	r4,r2
   25364:	180b883a 	mov	r5,r3
   25368:	002c8880 	call	2c888 <__muldf3>
   2536c:	000d883a 	mov	r6,zero
   25370:	01d00734 	movhi	r7,16412
   25374:	1009883a 	mov	r4,r2
   25378:	180b883a 	mov	r5,r3
   2537c:	002b3b40 	call	2b3b4 <__adddf3>
   25380:	047f3034 	movhi	r17,64704
   25384:	1021883a 	mov	r16,r2
   25388:	1c63883a 	add	r17,r3,r17
   2538c:	d9000f17 	ldw	r4,60(sp)
   25390:	d9401017 	ldw	r5,64(sp)
   25394:	000d883a 	mov	r6,zero
   25398:	01d00534 	movhi	r7,16404
   2539c:	002d0f40 	call	2d0f4 <__subdf3>
   253a0:	800d883a 	mov	r6,r16
   253a4:	880f883a 	mov	r7,r17
   253a8:	1009883a 	mov	r4,r2
   253ac:	180b883a 	mov	r5,r3
   253b0:	102b883a 	mov	r21,r2
   253b4:	1829883a 	mov	r20,r3
   253b8:	002c6b80 	call	2c6b8 <__gedf2>
   253bc:	00806c16 	blt	zero,r2,25570 <_dtoa_r+0x1304>
   253c0:	89e0003c 	xorhi	r7,r17,32768
   253c4:	800d883a 	mov	r6,r16
   253c8:	a809883a 	mov	r4,r21
   253cc:	a00b883a 	mov	r5,r20
   253d0:	002c7940 	call	2c794 <__ledf2>
   253d4:	103d7e0e 	bge	r2,zero,249d0 <__alt_mem_MemoriaImagem1+0xfffc49d0>
   253d8:	002b883a 	mov	r21,zero
   253dc:	0023883a 	mov	r17,zero
   253e0:	003efb06 	br	24fd0 <__alt_mem_MemoriaImagem1+0xfffc4fd0>
   253e4:	d8800717 	ldw	r2,28(sp)
   253e8:	003bd006 	br	2432c <__alt_mem_MemoriaImagem1+0xfffc432c>
   253ec:	d9000a17 	ldw	r4,40(sp)
   253f0:	d9800d17 	ldw	r6,52(sp)
   253f4:	dd400a15 	stw	r21,40(sp)
   253f8:	a905c83a 	sub	r2,r21,r4
   253fc:	308d883a 	add	r6,r6,r2
   25400:	d9800d15 	stw	r6,52(sp)
   25404:	002b883a 	mov	r21,zero
   25408:	003e0606 	br	24c24 <__alt_mem_MemoriaImagem1+0xfffc4c24>
   2540c:	9023883a 	mov	r17,r18
   25410:	9829883a 	mov	r20,r19
   25414:	04000084 	movi	r16,2
   25418:	003c9206 	br	24664 <__alt_mem_MemoriaImagem1+0xfffc4664>
   2541c:	04000044 	movi	r16,1
   25420:	dc000c15 	stw	r16,48(sp)
   25424:	dc000615 	stw	r16,24(sp)
   25428:	dc002215 	stw	r16,136(sp)
   2542c:	e0001115 	stw	zero,68(fp)
   25430:	000b883a 	mov	r5,zero
   25434:	003c6906 	br	245dc <__alt_mem_MemoriaImagem1+0xfffc45dc>
   25438:	3021883a 	mov	r16,r6
   2543c:	003ffb06 	br	2542c <__alt_mem_MemoriaImagem1+0xfffc542c>
   25440:	1000021e 	bne	r2,zero,2544c <_dtoa_r+0x11e0>
   25444:	4200004c 	andi	r8,r8,1
   25448:	403e7d1e 	bne	r8,zero,24e40 <__alt_mem_MemoriaImagem1+0xfffc4e40>
   2544c:	01000c04 	movi	r4,48
   25450:	00000106 	br	25458 <_dtoa_r+0x11ec>
   25454:	102f883a 	mov	r23,r2
   25458:	b8bfffc4 	addi	r2,r23,-1
   2545c:	10c00007 	ldb	r3,0(r2)
   25460:	193ffc26 	beq	r3,r4,25454 <__alt_mem_MemoriaImagem1+0xfffc5454>
   25464:	003e8706 	br	24e84 <__alt_mem_MemoriaImagem1+0xfffc4e84>
   25468:	d8800517 	ldw	r2,20(sp)
   2546c:	00a3c83a 	sub	r17,zero,r2
   25470:	8800a426 	beq	r17,zero,25704 <_dtoa_r+0x1498>
   25474:	888003cc 	andi	r2,r17,15
   25478:	100490fa 	slli	r2,r2,3
   2547c:	00c000f4 	movhi	r3,3
   25480:	18c11304 	addi	r3,r3,1100
   25484:	1885883a 	add	r2,r3,r2
   25488:	11800017 	ldw	r6,0(r2)
   2548c:	11c00117 	ldw	r7,4(r2)
   25490:	9009883a 	mov	r4,r18
   25494:	980b883a 	mov	r5,r19
   25498:	8823d13a 	srai	r17,r17,4
   2549c:	002c8880 	call	2c888 <__muldf3>
   254a0:	d8800f15 	stw	r2,60(sp)
   254a4:	d8c01015 	stw	r3,64(sp)
   254a8:	8800e826 	beq	r17,zero,2584c <_dtoa_r+0x15e0>
   254ac:	050000f4 	movhi	r20,3
   254b0:	a5010904 	addi	r20,r20,1060
   254b4:	04000084 	movi	r16,2
   254b8:	8980004c 	andi	r6,r17,1
   254bc:	1009883a 	mov	r4,r2
   254c0:	8823d07a 	srai	r17,r17,1
   254c4:	180b883a 	mov	r5,r3
   254c8:	30000426 	beq	r6,zero,254dc <_dtoa_r+0x1270>
   254cc:	a1800017 	ldw	r6,0(r20)
   254d0:	a1c00117 	ldw	r7,4(r20)
   254d4:	84000044 	addi	r16,r16,1
   254d8:	002c8880 	call	2c888 <__muldf3>
   254dc:	a5000204 	addi	r20,r20,8
   254e0:	883ff51e 	bne	r17,zero,254b8 <__alt_mem_MemoriaImagem1+0xfffc54b8>
   254e4:	d8800f15 	stw	r2,60(sp)
   254e8:	d8c01015 	stw	r3,64(sp)
   254ec:	003c7606 	br	246c8 <__alt_mem_MemoriaImagem1+0xfffc46c8>
   254f0:	00c00c04 	movi	r3,48
   254f4:	10c00005 	stb	r3,0(r2)
   254f8:	d8c00517 	ldw	r3,20(sp)
   254fc:	bd3fffc3 	ldbu	r20,-1(r23)
   25500:	18c00044 	addi	r3,r3,1
   25504:	d8c00515 	stw	r3,20(sp)
   25508:	003db906 	br	24bf0 <__alt_mem_MemoriaImagem1+0xfffc4bf0>
   2550c:	89400117 	ldw	r5,4(r17)
   25510:	e009883a 	mov	r4,fp
   25514:	0026f940 	call	26f94 <_Balloc>
   25518:	89800417 	ldw	r6,16(r17)
   2551c:	89400304 	addi	r5,r17,12
   25520:	11000304 	addi	r4,r2,12
   25524:	31800084 	addi	r6,r6,2
   25528:	318d883a 	add	r6,r6,r6
   2552c:	318d883a 	add	r6,r6,r6
   25530:	1027883a 	mov	r19,r2
   25534:	0026cf00 	call	26cf0 <memcpy>
   25538:	01800044 	movi	r6,1
   2553c:	980b883a 	mov	r5,r19
   25540:	e009883a 	mov	r4,fp
   25544:	00277d00 	call	277d0 <__lshift>
   25548:	1029883a 	mov	r20,r2
   2554c:	003ecc06 	br	25080 <__alt_mem_MemoriaImagem1+0xfffc5080>
   25550:	00800e44 	movi	r2,57
   25554:	90809026 	beq	r18,r2,25798 <_dtoa_r+0x152c>
   25558:	92000044 	addi	r8,r18,1
   2555c:	003f1f06 	br	251dc <__alt_mem_MemoriaImagem1+0xfffc51dc>
   25560:	9011883a 	mov	r8,r18
   25564:	8825883a 	mov	r18,r17
   25568:	a023883a 	mov	r17,r20
   2556c:	003e2906 	br	24e14 <__alt_mem_MemoriaImagem1+0xfffc4e14>
   25570:	002b883a 	mov	r21,zero
   25574:	0023883a 	mov	r17,zero
   25578:	003f5406 	br	252cc <__alt_mem_MemoriaImagem1+0xfffc52cc>
   2557c:	61bfffc4 	addi	r6,r12,-1
   25580:	300490fa 	slli	r2,r6,3
   25584:	00c000f4 	movhi	r3,3
   25588:	18c11304 	addi	r3,r3,1100
   2558c:	1885883a 	add	r2,r3,r2
   25590:	11000017 	ldw	r4,0(r2)
   25594:	11400117 	ldw	r5,4(r2)
   25598:	d8800717 	ldw	r2,28(sp)
   2559c:	880f883a 	mov	r7,r17
   255a0:	d9801215 	stw	r6,72(sp)
   255a4:	800d883a 	mov	r6,r16
   255a8:	db001615 	stw	r12,88(sp)
   255ac:	15c00044 	addi	r23,r2,1
   255b0:	002c8880 	call	2c888 <__muldf3>
   255b4:	d9401017 	ldw	r5,64(sp)
   255b8:	d9000f17 	ldw	r4,60(sp)
   255bc:	d8c01515 	stw	r3,84(sp)
   255c0:	d8801415 	stw	r2,80(sp)
   255c4:	002d9f00 	call	2d9f0 <__fixdfsi>
   255c8:	1009883a 	mov	r4,r2
   255cc:	1021883a 	mov	r16,r2
   255d0:	002da700 	call	2da70 <__floatsidf>
   255d4:	d9000f17 	ldw	r4,60(sp)
   255d8:	d9401017 	ldw	r5,64(sp)
   255dc:	100d883a 	mov	r6,r2
   255e0:	180f883a 	mov	r7,r3
   255e4:	002d0f40 	call	2d0f4 <__subdf3>
   255e8:	1829883a 	mov	r20,r3
   255ec:	d8c00717 	ldw	r3,28(sp)
   255f0:	84000c04 	addi	r16,r16,48
   255f4:	1023883a 	mov	r17,r2
   255f8:	1c000005 	stb	r16,0(r3)
   255fc:	db001617 	ldw	r12,88(sp)
   25600:	00800044 	movi	r2,1
   25604:	60802226 	beq	r12,r2,25690 <_dtoa_r+0x1424>
   25608:	d9c00717 	ldw	r7,28(sp)
   2560c:	8805883a 	mov	r2,r17
   25610:	b82b883a 	mov	r21,r23
   25614:	3b19883a 	add	r12,r7,r12
   25618:	6023883a 	mov	r17,r12
   2561c:	a007883a 	mov	r3,r20
   25620:	dc800f15 	stw	r18,60(sp)
   25624:	000d883a 	mov	r6,zero
   25628:	01d00934 	movhi	r7,16420
   2562c:	1009883a 	mov	r4,r2
   25630:	180b883a 	mov	r5,r3
   25634:	002c8880 	call	2c888 <__muldf3>
   25638:	180b883a 	mov	r5,r3
   2563c:	1009883a 	mov	r4,r2
   25640:	1829883a 	mov	r20,r3
   25644:	1025883a 	mov	r18,r2
   25648:	002d9f00 	call	2d9f0 <__fixdfsi>
   2564c:	1009883a 	mov	r4,r2
   25650:	1021883a 	mov	r16,r2
   25654:	002da700 	call	2da70 <__floatsidf>
   25658:	100d883a 	mov	r6,r2
